
coremark.elf:     file format elf32-littlearm


Disassembly of section .text:

0000c000 <g_am_pfnVectors>:
    c000:	f8 ff 05 10 bd 13 01 00 0d 14 01 00 11 14 01 00     ................
    c010:	11 14 01 00 11 14 01 00 11 14 01 00 11 14 01 00     ................
	...
    c02c:	15 14 01 00 15 14 01 00 00 00 00 00 15 14 01 00     ................
    c03c:	15 14 01 00 15 14 01 00 15 14 01 00 15 14 01 00     ................
    c04c:	15 14 01 00 15 14 01 00 15 14 01 00 15 14 01 00     ................
    c05c:	15 14 01 00 15 14 01 00 15 14 01 00 15 14 01 00     ................
    c06c:	15 14 01 00 15 14 01 00 15 14 01 00 15 14 01 00     ................
    c07c:	15 14 01 00 15 14 01 00 15 14 01 00 15 14 01 00     ................
    c08c:	15 14 01 00 15 14 01 00 15 14 01 00 15 14 01 00     ................
    c09c:	15 14 01 00 15 14 01 00 15 14 01 00 15 14 01 00     ................
    c0ac:	15 14 01 00 15 14 01 00 15 14 01 00 15 14 01 00     ................
    c0bc:	15 14 01 00                                         ....

0000c0c0 <__Patchable>:
	...

0000c100 <__aeabi_drsub>:
    c100:	f081 4100 	eor.w	r1, r1, #2147483648	; 0x80000000
    c104:	e002      	b.n	c10c <__adddf3>
    c106:	bf00      	nop

0000c108 <__aeabi_dsub>:
    c108:	f083 4300 	eor.w	r3, r3, #2147483648	; 0x80000000

0000c10c <__adddf3>:
    c10c:	b530      	push	{r4, r5, lr}
    c10e:	ea4f 0441 	mov.w	r4, r1, lsl #1
    c112:	ea4f 0543 	mov.w	r5, r3, lsl #1
    c116:	ea94 0f05 	teq	r4, r5
    c11a:	bf08      	it	eq
    c11c:	ea90 0f02 	teqeq	r0, r2
    c120:	bf1f      	itttt	ne
    c122:	ea54 0c00 	orrsne.w	ip, r4, r0
    c126:	ea55 0c02 	orrsne.w	ip, r5, r2
    c12a:	ea7f 5c64 	mvnsne.w	ip, r4, asr #21
    c12e:	ea7f 5c65 	mvnsne.w	ip, r5, asr #21
    c132:	f000 80e2 	beq.w	c2fa <__adddf3+0x1ee>
    c136:	ea4f 5454 	mov.w	r4, r4, lsr #21
    c13a:	ebd4 5555 	rsbs	r5, r4, r5, lsr #21
    c13e:	bfb8      	it	lt
    c140:	426d      	neglt	r5, r5
    c142:	dd0c      	ble.n	c15e <__adddf3+0x52>
    c144:	442c      	add	r4, r5
    c146:	ea80 0202 	eor.w	r2, r0, r2
    c14a:	ea81 0303 	eor.w	r3, r1, r3
    c14e:	ea82 0000 	eor.w	r0, r2, r0
    c152:	ea83 0101 	eor.w	r1, r3, r1
    c156:	ea80 0202 	eor.w	r2, r0, r2
    c15a:	ea81 0303 	eor.w	r3, r1, r3
    c15e:	2d36      	cmp	r5, #54	; 0x36
    c160:	bf88      	it	hi
    c162:	bd30      	pophi	{r4, r5, pc}
    c164:	f011 4f00 	tst.w	r1, #2147483648	; 0x80000000
    c168:	ea4f 3101 	mov.w	r1, r1, lsl #12
    c16c:	f44f 1c80 	mov.w	ip, #1048576	; 0x100000
    c170:	ea4c 3111 	orr.w	r1, ip, r1, lsr #12
    c174:	d002      	beq.n	c17c <__adddf3+0x70>
    c176:	4240      	negs	r0, r0
    c178:	eb61 0141 	sbc.w	r1, r1, r1, lsl #1
    c17c:	f013 4f00 	tst.w	r3, #2147483648	; 0x80000000
    c180:	ea4f 3303 	mov.w	r3, r3, lsl #12
    c184:	ea4c 3313 	orr.w	r3, ip, r3, lsr #12
    c188:	d002      	beq.n	c190 <__adddf3+0x84>
    c18a:	4252      	negs	r2, r2
    c18c:	eb63 0343 	sbc.w	r3, r3, r3, lsl #1
    c190:	ea94 0f05 	teq	r4, r5
    c194:	f000 80a7 	beq.w	c2e6 <__adddf3+0x1da>
    c198:	f1a4 0401 	sub.w	r4, r4, #1
    c19c:	f1d5 0e20 	rsbs	lr, r5, #32
    c1a0:	db0d      	blt.n	c1be <__adddf3+0xb2>
    c1a2:	fa02 fc0e 	lsl.w	ip, r2, lr
    c1a6:	fa22 f205 	lsr.w	r2, r2, r5
    c1aa:	1880      	adds	r0, r0, r2
    c1ac:	f141 0100 	adc.w	r1, r1, #0
    c1b0:	fa03 f20e 	lsl.w	r2, r3, lr
    c1b4:	1880      	adds	r0, r0, r2
    c1b6:	fa43 f305 	asr.w	r3, r3, r5
    c1ba:	4159      	adcs	r1, r3
    c1bc:	e00e      	b.n	c1dc <__adddf3+0xd0>
    c1be:	f1a5 0520 	sub.w	r5, r5, #32
    c1c2:	f10e 0e20 	add.w	lr, lr, #32
    c1c6:	2a01      	cmp	r2, #1
    c1c8:	fa03 fc0e 	lsl.w	ip, r3, lr
    c1cc:	bf28      	it	cs
    c1ce:	f04c 0c02 	orrcs.w	ip, ip, #2
    c1d2:	fa43 f305 	asr.w	r3, r3, r5
    c1d6:	18c0      	adds	r0, r0, r3
    c1d8:	eb51 71e3 	adcs.w	r1, r1, r3, asr #31
    c1dc:	f001 4500 	and.w	r5, r1, #2147483648	; 0x80000000
    c1e0:	d507      	bpl.n	c1f2 <__adddf3+0xe6>
    c1e2:	f04f 0e00 	mov.w	lr, #0
    c1e6:	f1dc 0c00 	rsbs	ip, ip, #0
    c1ea:	eb7e 0000 	sbcs.w	r0, lr, r0
    c1ee:	eb6e 0101 	sbc.w	r1, lr, r1
    c1f2:	f5b1 1f80 	cmp.w	r1, #1048576	; 0x100000
    c1f6:	d31b      	bcc.n	c230 <__adddf3+0x124>
    c1f8:	f5b1 1f00 	cmp.w	r1, #2097152	; 0x200000
    c1fc:	d30c      	bcc.n	c218 <__adddf3+0x10c>
    c1fe:	0849      	lsrs	r1, r1, #1
    c200:	ea5f 0030 	movs.w	r0, r0, rrx
    c204:	ea4f 0c3c 	mov.w	ip, ip, rrx
    c208:	f104 0401 	add.w	r4, r4, #1
    c20c:	ea4f 5244 	mov.w	r2, r4, lsl #21
    c210:	f512 0f80 	cmn.w	r2, #4194304	; 0x400000
    c214:	f080 809a 	bcs.w	c34c <__adddf3+0x240>
    c218:	f1bc 4f00 	cmp.w	ip, #2147483648	; 0x80000000
    c21c:	bf08      	it	eq
    c21e:	ea5f 0c50 	movseq.w	ip, r0, lsr #1
    c222:	f150 0000 	adcs.w	r0, r0, #0
    c226:	eb41 5104 	adc.w	r1, r1, r4, lsl #20
    c22a:	ea41 0105 	orr.w	r1, r1, r5
    c22e:	bd30      	pop	{r4, r5, pc}
    c230:	ea5f 0c4c 	movs.w	ip, ip, lsl #1
    c234:	4140      	adcs	r0, r0
    c236:	eb41 0101 	adc.w	r1, r1, r1
    c23a:	3c01      	subs	r4, #1
    c23c:	bf28      	it	cs
    c23e:	f5b1 1f80 	cmpcs.w	r1, #1048576	; 0x100000
    c242:	d2e9      	bcs.n	c218 <__adddf3+0x10c>
    c244:	f091 0f00 	teq	r1, #0
    c248:	bf04      	itt	eq
    c24a:	4601      	moveq	r1, r0
    c24c:	2000      	moveq	r0, #0
    c24e:	fab1 f381 	clz	r3, r1
    c252:	bf08      	it	eq
    c254:	3320      	addeq	r3, #32
    c256:	f1a3 030b 	sub.w	r3, r3, #11
    c25a:	f1b3 0220 	subs.w	r2, r3, #32
    c25e:	da0c      	bge.n	c27a <__adddf3+0x16e>
    c260:	320c      	adds	r2, #12
    c262:	dd08      	ble.n	c276 <__adddf3+0x16a>
    c264:	f102 0c14 	add.w	ip, r2, #20
    c268:	f1c2 020c 	rsb	r2, r2, #12
    c26c:	fa01 f00c 	lsl.w	r0, r1, ip
    c270:	fa21 f102 	lsr.w	r1, r1, r2
    c274:	e00c      	b.n	c290 <__adddf3+0x184>
    c276:	f102 0214 	add.w	r2, r2, #20
    c27a:	bfd8      	it	le
    c27c:	f1c2 0c20 	rsble	ip, r2, #32
    c280:	fa01 f102 	lsl.w	r1, r1, r2
    c284:	fa20 fc0c 	lsr.w	ip, r0, ip
    c288:	bfdc      	itt	le
    c28a:	ea41 010c 	orrle.w	r1, r1, ip
    c28e:	4090      	lslle	r0, r2
    c290:	1ae4      	subs	r4, r4, r3
    c292:	bfa2      	ittt	ge
    c294:	eb01 5104 	addge.w	r1, r1, r4, lsl #20
    c298:	4329      	orrge	r1, r5
    c29a:	bd30      	popge	{r4, r5, pc}
    c29c:	ea6f 0404 	mvn.w	r4, r4
    c2a0:	3c1f      	subs	r4, #31
    c2a2:	da1c      	bge.n	c2de <__adddf3+0x1d2>
    c2a4:	340c      	adds	r4, #12
    c2a6:	dc0e      	bgt.n	c2c6 <__adddf3+0x1ba>
    c2a8:	f104 0414 	add.w	r4, r4, #20
    c2ac:	f1c4 0220 	rsb	r2, r4, #32
    c2b0:	fa20 f004 	lsr.w	r0, r0, r4
    c2b4:	fa01 f302 	lsl.w	r3, r1, r2
    c2b8:	ea40 0003 	orr.w	r0, r0, r3
    c2bc:	fa21 f304 	lsr.w	r3, r1, r4
    c2c0:	ea45 0103 	orr.w	r1, r5, r3
    c2c4:	bd30      	pop	{r4, r5, pc}
    c2c6:	f1c4 040c 	rsb	r4, r4, #12
    c2ca:	f1c4 0220 	rsb	r2, r4, #32
    c2ce:	fa20 f002 	lsr.w	r0, r0, r2
    c2d2:	fa01 f304 	lsl.w	r3, r1, r4
    c2d6:	ea40 0003 	orr.w	r0, r0, r3
    c2da:	4629      	mov	r1, r5
    c2dc:	bd30      	pop	{r4, r5, pc}
    c2de:	fa21 f004 	lsr.w	r0, r1, r4
    c2e2:	4629      	mov	r1, r5
    c2e4:	bd30      	pop	{r4, r5, pc}
    c2e6:	f094 0f00 	teq	r4, #0
    c2ea:	f483 1380 	eor.w	r3, r3, #1048576	; 0x100000
    c2ee:	bf06      	itte	eq
    c2f0:	f481 1180 	eoreq.w	r1, r1, #1048576	; 0x100000
    c2f4:	3401      	addeq	r4, #1
    c2f6:	3d01      	subne	r5, #1
    c2f8:	e74e      	b.n	c198 <__adddf3+0x8c>
    c2fa:	ea7f 5c64 	mvns.w	ip, r4, asr #21
    c2fe:	bf18      	it	ne
    c300:	ea7f 5c65 	mvnsne.w	ip, r5, asr #21
    c304:	d029      	beq.n	c35a <__adddf3+0x24e>
    c306:	ea94 0f05 	teq	r4, r5
    c30a:	bf08      	it	eq
    c30c:	ea90 0f02 	teqeq	r0, r2
    c310:	d005      	beq.n	c31e <__adddf3+0x212>
    c312:	ea54 0c00 	orrs.w	ip, r4, r0
    c316:	bf04      	itt	eq
    c318:	4619      	moveq	r1, r3
    c31a:	4610      	moveq	r0, r2
    c31c:	bd30      	pop	{r4, r5, pc}
    c31e:	ea91 0f03 	teq	r1, r3
    c322:	bf1e      	ittt	ne
    c324:	2100      	movne	r1, #0
    c326:	2000      	movne	r0, #0
    c328:	bd30      	popne	{r4, r5, pc}
    c32a:	ea5f 5c54 	movs.w	ip, r4, lsr #21
    c32e:	d105      	bne.n	c33c <__adddf3+0x230>
    c330:	0040      	lsls	r0, r0, #1
    c332:	4149      	adcs	r1, r1
    c334:	bf28      	it	cs
    c336:	f041 4100 	orrcs.w	r1, r1, #2147483648	; 0x80000000
    c33a:	bd30      	pop	{r4, r5, pc}
    c33c:	f514 0480 	adds.w	r4, r4, #4194304	; 0x400000
    c340:	bf3c      	itt	cc
    c342:	f501 1180 	addcc.w	r1, r1, #1048576	; 0x100000
    c346:	bd30      	popcc	{r4, r5, pc}
    c348:	f001 4500 	and.w	r5, r1, #2147483648	; 0x80000000
    c34c:	f045 41fe 	orr.w	r1, r5, #2130706432	; 0x7f000000
    c350:	f441 0170 	orr.w	r1, r1, #15728640	; 0xf00000
    c354:	f04f 0000 	mov.w	r0, #0
    c358:	bd30      	pop	{r4, r5, pc}
    c35a:	ea7f 5c64 	mvns.w	ip, r4, asr #21
    c35e:	bf1a      	itte	ne
    c360:	4619      	movne	r1, r3
    c362:	4610      	movne	r0, r2
    c364:	ea7f 5c65 	mvnseq.w	ip, r5, asr #21
    c368:	bf1c      	itt	ne
    c36a:	460b      	movne	r3, r1
    c36c:	4602      	movne	r2, r0
    c36e:	ea50 3401 	orrs.w	r4, r0, r1, lsl #12
    c372:	bf06      	itte	eq
    c374:	ea52 3503 	orrseq.w	r5, r2, r3, lsl #12
    c378:	ea91 0f03 	teqeq	r1, r3
    c37c:	f441 2100 	orrne.w	r1, r1, #524288	; 0x80000
    c380:	bd30      	pop	{r4, r5, pc}
    c382:	bf00      	nop

0000c384 <__aeabi_ui2d>:
    c384:	f090 0f00 	teq	r0, #0
    c388:	bf04      	itt	eq
    c38a:	2100      	moveq	r1, #0
    c38c:	4770      	bxeq	lr
    c38e:	b530      	push	{r4, r5, lr}
    c390:	f44f 6480 	mov.w	r4, #1024	; 0x400
    c394:	f104 0432 	add.w	r4, r4, #50	; 0x32
    c398:	f04f 0500 	mov.w	r5, #0
    c39c:	f04f 0100 	mov.w	r1, #0
    c3a0:	e750      	b.n	c244 <__adddf3+0x138>
    c3a2:	bf00      	nop

0000c3a4 <__aeabi_i2d>:
    c3a4:	f090 0f00 	teq	r0, #0
    c3a8:	bf04      	itt	eq
    c3aa:	2100      	moveq	r1, #0
    c3ac:	4770      	bxeq	lr
    c3ae:	b530      	push	{r4, r5, lr}
    c3b0:	f44f 6480 	mov.w	r4, #1024	; 0x400
    c3b4:	f104 0432 	add.w	r4, r4, #50	; 0x32
    c3b8:	f010 4500 	ands.w	r5, r0, #2147483648	; 0x80000000
    c3bc:	bf48      	it	mi
    c3be:	4240      	negmi	r0, r0
    c3c0:	f04f 0100 	mov.w	r1, #0
    c3c4:	e73e      	b.n	c244 <__adddf3+0x138>
    c3c6:	bf00      	nop

0000c3c8 <__aeabi_f2d>:
    c3c8:	0042      	lsls	r2, r0, #1
    c3ca:	ea4f 01e2 	mov.w	r1, r2, asr #3
    c3ce:	ea4f 0131 	mov.w	r1, r1, rrx
    c3d2:	ea4f 7002 	mov.w	r0, r2, lsl #28
    c3d6:	bf1f      	itttt	ne
    c3d8:	f012 437f 	andsne.w	r3, r2, #4278190080	; 0xff000000
    c3dc:	f093 4f7f 	teqne	r3, #4278190080	; 0xff000000
    c3e0:	f081 5160 	eorne.w	r1, r1, #939524096	; 0x38000000
    c3e4:	4770      	bxne	lr
    c3e6:	f032 427f 	bics.w	r2, r2, #4278190080	; 0xff000000
    c3ea:	bf08      	it	eq
    c3ec:	4770      	bxeq	lr
    c3ee:	f093 4f7f 	teq	r3, #4278190080	; 0xff000000
    c3f2:	bf04      	itt	eq
    c3f4:	f441 2100 	orreq.w	r1, r1, #524288	; 0x80000
    c3f8:	4770      	bxeq	lr
    c3fa:	b530      	push	{r4, r5, lr}
    c3fc:	f44f 7460 	mov.w	r4, #896	; 0x380
    c400:	f001 4500 	and.w	r5, r1, #2147483648	; 0x80000000
    c404:	f021 4100 	bic.w	r1, r1, #2147483648	; 0x80000000
    c408:	e71c      	b.n	c244 <__adddf3+0x138>
    c40a:	bf00      	nop

0000c40c <__aeabi_ul2d>:
    c40c:	ea50 0201 	orrs.w	r2, r0, r1
    c410:	bf08      	it	eq
    c412:	4770      	bxeq	lr
    c414:	b530      	push	{r4, r5, lr}
    c416:	f04f 0500 	mov.w	r5, #0
    c41a:	e00a      	b.n	c432 <__aeabi_l2d+0x16>

0000c41c <__aeabi_l2d>:
    c41c:	ea50 0201 	orrs.w	r2, r0, r1
    c420:	bf08      	it	eq
    c422:	4770      	bxeq	lr
    c424:	b530      	push	{r4, r5, lr}
    c426:	f011 4500 	ands.w	r5, r1, #2147483648	; 0x80000000
    c42a:	d502      	bpl.n	c432 <__aeabi_l2d+0x16>
    c42c:	4240      	negs	r0, r0
    c42e:	eb61 0141 	sbc.w	r1, r1, r1, lsl #1
    c432:	f44f 6480 	mov.w	r4, #1024	; 0x400
    c436:	f104 0432 	add.w	r4, r4, #50	; 0x32
    c43a:	ea5f 5c91 	movs.w	ip, r1, lsr #22
    c43e:	f43f aed8 	beq.w	c1f2 <__adddf3+0xe6>
    c442:	f04f 0203 	mov.w	r2, #3
    c446:	ea5f 0cdc 	movs.w	ip, ip, lsr #3
    c44a:	bf18      	it	ne
    c44c:	3203      	addne	r2, #3
    c44e:	ea5f 0cdc 	movs.w	ip, ip, lsr #3
    c452:	bf18      	it	ne
    c454:	3203      	addne	r2, #3
    c456:	eb02 02dc 	add.w	r2, r2, ip, lsr #3
    c45a:	f1c2 0320 	rsb	r3, r2, #32
    c45e:	fa00 fc03 	lsl.w	ip, r0, r3
    c462:	fa20 f002 	lsr.w	r0, r0, r2
    c466:	fa01 fe03 	lsl.w	lr, r1, r3
    c46a:	ea40 000e 	orr.w	r0, r0, lr
    c46e:	fa21 f102 	lsr.w	r1, r1, r2
    c472:	4414      	add	r4, r2
    c474:	e6bd      	b.n	c1f2 <__adddf3+0xe6>
    c476:	bf00      	nop

0000c478 <__aeabi_dmul>:
    c478:	b570      	push	{r4, r5, r6, lr}
    c47a:	f04f 0cff 	mov.w	ip, #255	; 0xff
    c47e:	f44c 6ce0 	orr.w	ip, ip, #1792	; 0x700
    c482:	ea1c 5411 	ands.w	r4, ip, r1, lsr #20
    c486:	bf1d      	ittte	ne
    c488:	ea1c 5513 	andsne.w	r5, ip, r3, lsr #20
    c48c:	ea94 0f0c 	teqne	r4, ip
    c490:	ea95 0f0c 	teqne	r5, ip
    c494:	f000 f8de 	bleq	c654 <__aeabi_dmul+0x1dc>
    c498:	442c      	add	r4, r5
    c49a:	ea81 0603 	eor.w	r6, r1, r3
    c49e:	ea21 514c 	bic.w	r1, r1, ip, lsl #21
    c4a2:	ea23 534c 	bic.w	r3, r3, ip, lsl #21
    c4a6:	ea50 3501 	orrs.w	r5, r0, r1, lsl #12
    c4aa:	bf18      	it	ne
    c4ac:	ea52 3503 	orrsne.w	r5, r2, r3, lsl #12
    c4b0:	f441 1180 	orr.w	r1, r1, #1048576	; 0x100000
    c4b4:	f443 1380 	orr.w	r3, r3, #1048576	; 0x100000
    c4b8:	d038      	beq.n	c52c <__aeabi_dmul+0xb4>
    c4ba:	fba0 ce02 	umull	ip, lr, r0, r2
    c4be:	f04f 0500 	mov.w	r5, #0
    c4c2:	fbe1 e502 	umlal	lr, r5, r1, r2
    c4c6:	f006 4200 	and.w	r2, r6, #2147483648	; 0x80000000
    c4ca:	fbe0 e503 	umlal	lr, r5, r0, r3
    c4ce:	f04f 0600 	mov.w	r6, #0
    c4d2:	fbe1 5603 	umlal	r5, r6, r1, r3
    c4d6:	f09c 0f00 	teq	ip, #0
    c4da:	bf18      	it	ne
    c4dc:	f04e 0e01 	orrne.w	lr, lr, #1
    c4e0:	f1a4 04ff 	sub.w	r4, r4, #255	; 0xff
    c4e4:	f5b6 7f00 	cmp.w	r6, #512	; 0x200
    c4e8:	f564 7440 	sbc.w	r4, r4, #768	; 0x300
    c4ec:	d204      	bcs.n	c4f8 <__aeabi_dmul+0x80>
    c4ee:	ea5f 0e4e 	movs.w	lr, lr, lsl #1
    c4f2:	416d      	adcs	r5, r5
    c4f4:	eb46 0606 	adc.w	r6, r6, r6
    c4f8:	ea42 21c6 	orr.w	r1, r2, r6, lsl #11
    c4fc:	ea41 5155 	orr.w	r1, r1, r5, lsr #21
    c500:	ea4f 20c5 	mov.w	r0, r5, lsl #11
    c504:	ea40 505e 	orr.w	r0, r0, lr, lsr #21
    c508:	ea4f 2ece 	mov.w	lr, lr, lsl #11
    c50c:	f1b4 0cfd 	subs.w	ip, r4, #253	; 0xfd
    c510:	bf88      	it	hi
    c512:	f5bc 6fe0 	cmphi.w	ip, #1792	; 0x700
    c516:	d81e      	bhi.n	c556 <__aeabi_dmul+0xde>
    c518:	f1be 4f00 	cmp.w	lr, #2147483648	; 0x80000000
    c51c:	bf08      	it	eq
    c51e:	ea5f 0e50 	movseq.w	lr, r0, lsr #1
    c522:	f150 0000 	adcs.w	r0, r0, #0
    c526:	eb41 5104 	adc.w	r1, r1, r4, lsl #20
    c52a:	bd70      	pop	{r4, r5, r6, pc}
    c52c:	f006 4600 	and.w	r6, r6, #2147483648	; 0x80000000
    c530:	ea46 0101 	orr.w	r1, r6, r1
    c534:	ea40 0002 	orr.w	r0, r0, r2
    c538:	ea81 0103 	eor.w	r1, r1, r3
    c53c:	ebb4 045c 	subs.w	r4, r4, ip, lsr #1
    c540:	bfc2      	ittt	gt
    c542:	ebd4 050c 	rsbsgt	r5, r4, ip
    c546:	ea41 5104 	orrgt.w	r1, r1, r4, lsl #20
    c54a:	bd70      	popgt	{r4, r5, r6, pc}
    c54c:	f441 1180 	orr.w	r1, r1, #1048576	; 0x100000
    c550:	f04f 0e00 	mov.w	lr, #0
    c554:	3c01      	subs	r4, #1
    c556:	f300 80ab 	bgt.w	c6b0 <__aeabi_dmul+0x238>
    c55a:	f114 0f36 	cmn.w	r4, #54	; 0x36
    c55e:	bfde      	ittt	le
    c560:	2000      	movle	r0, #0
    c562:	f001 4100 	andle.w	r1, r1, #2147483648	; 0x80000000
    c566:	bd70      	pople	{r4, r5, r6, pc}
    c568:	f1c4 0400 	rsb	r4, r4, #0
    c56c:	3c20      	subs	r4, #32
    c56e:	da35      	bge.n	c5dc <__aeabi_dmul+0x164>
    c570:	340c      	adds	r4, #12
    c572:	dc1b      	bgt.n	c5ac <__aeabi_dmul+0x134>
    c574:	f104 0414 	add.w	r4, r4, #20
    c578:	f1c4 0520 	rsb	r5, r4, #32
    c57c:	fa00 f305 	lsl.w	r3, r0, r5
    c580:	fa20 f004 	lsr.w	r0, r0, r4
    c584:	fa01 f205 	lsl.w	r2, r1, r5
    c588:	ea40 0002 	orr.w	r0, r0, r2
    c58c:	f001 4200 	and.w	r2, r1, #2147483648	; 0x80000000
    c590:	f021 4100 	bic.w	r1, r1, #2147483648	; 0x80000000
    c594:	eb10 70d3 	adds.w	r0, r0, r3, lsr #31
    c598:	fa21 f604 	lsr.w	r6, r1, r4
    c59c:	eb42 0106 	adc.w	r1, r2, r6
    c5a0:	ea5e 0e43 	orrs.w	lr, lr, r3, lsl #1
    c5a4:	bf08      	it	eq
    c5a6:	ea20 70d3 	biceq.w	r0, r0, r3, lsr #31
    c5aa:	bd70      	pop	{r4, r5, r6, pc}
    c5ac:	f1c4 040c 	rsb	r4, r4, #12
    c5b0:	f1c4 0520 	rsb	r5, r4, #32
    c5b4:	fa00 f304 	lsl.w	r3, r0, r4
    c5b8:	fa20 f005 	lsr.w	r0, r0, r5
    c5bc:	fa01 f204 	lsl.w	r2, r1, r4
    c5c0:	ea40 0002 	orr.w	r0, r0, r2
    c5c4:	f001 4100 	and.w	r1, r1, #2147483648	; 0x80000000
    c5c8:	eb10 70d3 	adds.w	r0, r0, r3, lsr #31
    c5cc:	f141 0100 	adc.w	r1, r1, #0
    c5d0:	ea5e 0e43 	orrs.w	lr, lr, r3, lsl #1
    c5d4:	bf08      	it	eq
    c5d6:	ea20 70d3 	biceq.w	r0, r0, r3, lsr #31
    c5da:	bd70      	pop	{r4, r5, r6, pc}
    c5dc:	f1c4 0520 	rsb	r5, r4, #32
    c5e0:	fa00 f205 	lsl.w	r2, r0, r5
    c5e4:	ea4e 0e02 	orr.w	lr, lr, r2
    c5e8:	fa20 f304 	lsr.w	r3, r0, r4
    c5ec:	fa01 f205 	lsl.w	r2, r1, r5
    c5f0:	ea43 0302 	orr.w	r3, r3, r2
    c5f4:	fa21 f004 	lsr.w	r0, r1, r4
    c5f8:	f001 4100 	and.w	r1, r1, #2147483648	; 0x80000000
    c5fc:	fa21 f204 	lsr.w	r2, r1, r4
    c600:	ea20 0002 	bic.w	r0, r0, r2
    c604:	eb00 70d3 	add.w	r0, r0, r3, lsr #31
    c608:	ea5e 0e43 	orrs.w	lr, lr, r3, lsl #1
    c60c:	bf08      	it	eq
    c60e:	ea20 70d3 	biceq.w	r0, r0, r3, lsr #31
    c612:	bd70      	pop	{r4, r5, r6, pc}
    c614:	f094 0f00 	teq	r4, #0
    c618:	d10f      	bne.n	c63a <__aeabi_dmul+0x1c2>
    c61a:	f001 4600 	and.w	r6, r1, #2147483648	; 0x80000000
    c61e:	0040      	lsls	r0, r0, #1
    c620:	eb41 0101 	adc.w	r1, r1, r1
    c624:	f411 1f80 	tst.w	r1, #1048576	; 0x100000
    c628:	bf08      	it	eq
    c62a:	3c01      	subeq	r4, #1
    c62c:	d0f7      	beq.n	c61e <__aeabi_dmul+0x1a6>
    c62e:	ea41 0106 	orr.w	r1, r1, r6
    c632:	f095 0f00 	teq	r5, #0
    c636:	bf18      	it	ne
    c638:	4770      	bxne	lr
    c63a:	f003 4600 	and.w	r6, r3, #2147483648	; 0x80000000
    c63e:	0052      	lsls	r2, r2, #1
    c640:	eb43 0303 	adc.w	r3, r3, r3
    c644:	f413 1f80 	tst.w	r3, #1048576	; 0x100000
    c648:	bf08      	it	eq
    c64a:	3d01      	subeq	r5, #1
    c64c:	d0f7      	beq.n	c63e <__aeabi_dmul+0x1c6>
    c64e:	ea43 0306 	orr.w	r3, r3, r6
    c652:	4770      	bx	lr
    c654:	ea94 0f0c 	teq	r4, ip
    c658:	ea0c 5513 	and.w	r5, ip, r3, lsr #20
    c65c:	bf18      	it	ne
    c65e:	ea95 0f0c 	teqne	r5, ip
    c662:	d00c      	beq.n	c67e <__aeabi_dmul+0x206>
    c664:	ea50 0641 	orrs.w	r6, r0, r1, lsl #1
    c668:	bf18      	it	ne
    c66a:	ea52 0643 	orrsne.w	r6, r2, r3, lsl #1
    c66e:	d1d1      	bne.n	c614 <__aeabi_dmul+0x19c>
    c670:	ea81 0103 	eor.w	r1, r1, r3
    c674:	f001 4100 	and.w	r1, r1, #2147483648	; 0x80000000
    c678:	f04f 0000 	mov.w	r0, #0
    c67c:	bd70      	pop	{r4, r5, r6, pc}
    c67e:	ea50 0641 	orrs.w	r6, r0, r1, lsl #1
    c682:	bf06      	itte	eq
    c684:	4610      	moveq	r0, r2
    c686:	4619      	moveq	r1, r3
    c688:	ea52 0643 	orrsne.w	r6, r2, r3, lsl #1
    c68c:	d019      	beq.n	c6c2 <__aeabi_dmul+0x24a>
    c68e:	ea94 0f0c 	teq	r4, ip
    c692:	d102      	bne.n	c69a <__aeabi_dmul+0x222>
    c694:	ea50 3601 	orrs.w	r6, r0, r1, lsl #12
    c698:	d113      	bne.n	c6c2 <__aeabi_dmul+0x24a>
    c69a:	ea95 0f0c 	teq	r5, ip
    c69e:	d105      	bne.n	c6ac <__aeabi_dmul+0x234>
    c6a0:	ea52 3603 	orrs.w	r6, r2, r3, lsl #12
    c6a4:	bf1c      	itt	ne
    c6a6:	4610      	movne	r0, r2
    c6a8:	4619      	movne	r1, r3
    c6aa:	d10a      	bne.n	c6c2 <__aeabi_dmul+0x24a>
    c6ac:	ea81 0103 	eor.w	r1, r1, r3
    c6b0:	f001 4100 	and.w	r1, r1, #2147483648	; 0x80000000
    c6b4:	f041 41fe 	orr.w	r1, r1, #2130706432	; 0x7f000000
    c6b8:	f441 0170 	orr.w	r1, r1, #15728640	; 0xf00000
    c6bc:	f04f 0000 	mov.w	r0, #0
    c6c0:	bd70      	pop	{r4, r5, r6, pc}
    c6c2:	f041 41fe 	orr.w	r1, r1, #2130706432	; 0x7f000000
    c6c6:	f441 0178 	orr.w	r1, r1, #16252928	; 0xf80000
    c6ca:	bd70      	pop	{r4, r5, r6, pc}

0000c6cc <__aeabi_ddiv>:
    c6cc:	b570      	push	{r4, r5, r6, lr}
    c6ce:	f04f 0cff 	mov.w	ip, #255	; 0xff
    c6d2:	f44c 6ce0 	orr.w	ip, ip, #1792	; 0x700
    c6d6:	ea1c 5411 	ands.w	r4, ip, r1, lsr #20
    c6da:	bf1d      	ittte	ne
    c6dc:	ea1c 5513 	andsne.w	r5, ip, r3, lsr #20
    c6e0:	ea94 0f0c 	teqne	r4, ip
    c6e4:	ea95 0f0c 	teqne	r5, ip
    c6e8:	f000 f8a7 	bleq	c83a <__aeabi_ddiv+0x16e>
    c6ec:	eba4 0405 	sub.w	r4, r4, r5
    c6f0:	ea81 0e03 	eor.w	lr, r1, r3
    c6f4:	ea52 3503 	orrs.w	r5, r2, r3, lsl #12
    c6f8:	ea4f 3101 	mov.w	r1, r1, lsl #12
    c6fc:	f000 8088 	beq.w	c810 <__aeabi_ddiv+0x144>
    c700:	ea4f 3303 	mov.w	r3, r3, lsl #12
    c704:	f04f 5580 	mov.w	r5, #268435456	; 0x10000000
    c708:	ea45 1313 	orr.w	r3, r5, r3, lsr #4
    c70c:	ea43 6312 	orr.w	r3, r3, r2, lsr #24
    c710:	ea4f 2202 	mov.w	r2, r2, lsl #8
    c714:	ea45 1511 	orr.w	r5, r5, r1, lsr #4
    c718:	ea45 6510 	orr.w	r5, r5, r0, lsr #24
    c71c:	ea4f 2600 	mov.w	r6, r0, lsl #8
    c720:	f00e 4100 	and.w	r1, lr, #2147483648	; 0x80000000
    c724:	429d      	cmp	r5, r3
    c726:	bf08      	it	eq
    c728:	4296      	cmpeq	r6, r2
    c72a:	f144 04fd 	adc.w	r4, r4, #253	; 0xfd
    c72e:	f504 7440 	add.w	r4, r4, #768	; 0x300
    c732:	d202      	bcs.n	c73a <__aeabi_ddiv+0x6e>
    c734:	085b      	lsrs	r3, r3, #1
    c736:	ea4f 0232 	mov.w	r2, r2, rrx
    c73a:	1ab6      	subs	r6, r6, r2
    c73c:	eb65 0503 	sbc.w	r5, r5, r3
    c740:	085b      	lsrs	r3, r3, #1
    c742:	ea4f 0232 	mov.w	r2, r2, rrx
    c746:	f44f 1080 	mov.w	r0, #1048576	; 0x100000
    c74a:	f44f 2c00 	mov.w	ip, #524288	; 0x80000
    c74e:	ebb6 0e02 	subs.w	lr, r6, r2
    c752:	eb75 0e03 	sbcs.w	lr, r5, r3
    c756:	bf22      	ittt	cs
    c758:	1ab6      	subcs	r6, r6, r2
    c75a:	4675      	movcs	r5, lr
    c75c:	ea40 000c 	orrcs.w	r0, r0, ip
    c760:	085b      	lsrs	r3, r3, #1
    c762:	ea4f 0232 	mov.w	r2, r2, rrx
    c766:	ebb6 0e02 	subs.w	lr, r6, r2
    c76a:	eb75 0e03 	sbcs.w	lr, r5, r3
    c76e:	bf22      	ittt	cs
    c770:	1ab6      	subcs	r6, r6, r2
    c772:	4675      	movcs	r5, lr
    c774:	ea40 005c 	orrcs.w	r0, r0, ip, lsr #1
    c778:	085b      	lsrs	r3, r3, #1
    c77a:	ea4f 0232 	mov.w	r2, r2, rrx
    c77e:	ebb6 0e02 	subs.w	lr, r6, r2
    c782:	eb75 0e03 	sbcs.w	lr, r5, r3
    c786:	bf22      	ittt	cs
    c788:	1ab6      	subcs	r6, r6, r2
    c78a:	4675      	movcs	r5, lr
    c78c:	ea40 009c 	orrcs.w	r0, r0, ip, lsr #2
    c790:	085b      	lsrs	r3, r3, #1
    c792:	ea4f 0232 	mov.w	r2, r2, rrx
    c796:	ebb6 0e02 	subs.w	lr, r6, r2
    c79a:	eb75 0e03 	sbcs.w	lr, r5, r3
    c79e:	bf22      	ittt	cs
    c7a0:	1ab6      	subcs	r6, r6, r2
    c7a2:	4675      	movcs	r5, lr
    c7a4:	ea40 00dc 	orrcs.w	r0, r0, ip, lsr #3
    c7a8:	ea55 0e06 	orrs.w	lr, r5, r6
    c7ac:	d018      	beq.n	c7e0 <__aeabi_ddiv+0x114>
    c7ae:	ea4f 1505 	mov.w	r5, r5, lsl #4
    c7b2:	ea45 7516 	orr.w	r5, r5, r6, lsr #28
    c7b6:	ea4f 1606 	mov.w	r6, r6, lsl #4
    c7ba:	ea4f 03c3 	mov.w	r3, r3, lsl #3
    c7be:	ea43 7352 	orr.w	r3, r3, r2, lsr #29
    c7c2:	ea4f 02c2 	mov.w	r2, r2, lsl #3
    c7c6:	ea5f 1c1c 	movs.w	ip, ip, lsr #4
    c7ca:	d1c0      	bne.n	c74e <__aeabi_ddiv+0x82>
    c7cc:	f411 1f80 	tst.w	r1, #1048576	; 0x100000
    c7d0:	d10b      	bne.n	c7ea <__aeabi_ddiv+0x11e>
    c7d2:	ea41 0100 	orr.w	r1, r1, r0
    c7d6:	f04f 0000 	mov.w	r0, #0
    c7da:	f04f 4c00 	mov.w	ip, #2147483648	; 0x80000000
    c7de:	e7b6      	b.n	c74e <__aeabi_ddiv+0x82>
    c7e0:	f411 1f80 	tst.w	r1, #1048576	; 0x100000
    c7e4:	bf04      	itt	eq
    c7e6:	4301      	orreq	r1, r0
    c7e8:	2000      	moveq	r0, #0
    c7ea:	f1b4 0cfd 	subs.w	ip, r4, #253	; 0xfd
    c7ee:	bf88      	it	hi
    c7f0:	f5bc 6fe0 	cmphi.w	ip, #1792	; 0x700
    c7f4:	f63f aeaf 	bhi.w	c556 <__aeabi_dmul+0xde>
    c7f8:	ebb5 0c03 	subs.w	ip, r5, r3
    c7fc:	bf04      	itt	eq
    c7fe:	ebb6 0c02 	subseq.w	ip, r6, r2
    c802:	ea5f 0c50 	movseq.w	ip, r0, lsr #1
    c806:	f150 0000 	adcs.w	r0, r0, #0
    c80a:	eb41 5104 	adc.w	r1, r1, r4, lsl #20
    c80e:	bd70      	pop	{r4, r5, r6, pc}
    c810:	f00e 4e00 	and.w	lr, lr, #2147483648	; 0x80000000
    c814:	ea4e 3111 	orr.w	r1, lr, r1, lsr #12
    c818:	eb14 045c 	adds.w	r4, r4, ip, lsr #1
    c81c:	bfc2      	ittt	gt
    c81e:	ebd4 050c 	rsbsgt	r5, r4, ip
    c822:	ea41 5104 	orrgt.w	r1, r1, r4, lsl #20
    c826:	bd70      	popgt	{r4, r5, r6, pc}
    c828:	f441 1180 	orr.w	r1, r1, #1048576	; 0x100000
    c82c:	f04f 0e00 	mov.w	lr, #0
    c830:	3c01      	subs	r4, #1
    c832:	e690      	b.n	c556 <__aeabi_dmul+0xde>
    c834:	ea45 0e06 	orr.w	lr, r5, r6
    c838:	e68d      	b.n	c556 <__aeabi_dmul+0xde>
    c83a:	ea0c 5513 	and.w	r5, ip, r3, lsr #20
    c83e:	ea94 0f0c 	teq	r4, ip
    c842:	bf08      	it	eq
    c844:	ea95 0f0c 	teqeq	r5, ip
    c848:	f43f af3b 	beq.w	c6c2 <__aeabi_dmul+0x24a>
    c84c:	ea94 0f0c 	teq	r4, ip
    c850:	d10a      	bne.n	c868 <__aeabi_ddiv+0x19c>
    c852:	ea50 3401 	orrs.w	r4, r0, r1, lsl #12
    c856:	f47f af34 	bne.w	c6c2 <__aeabi_dmul+0x24a>
    c85a:	ea95 0f0c 	teq	r5, ip
    c85e:	f47f af25 	bne.w	c6ac <__aeabi_dmul+0x234>
    c862:	4610      	mov	r0, r2
    c864:	4619      	mov	r1, r3
    c866:	e72c      	b.n	c6c2 <__aeabi_dmul+0x24a>
    c868:	ea95 0f0c 	teq	r5, ip
    c86c:	d106      	bne.n	c87c <__aeabi_ddiv+0x1b0>
    c86e:	ea52 3503 	orrs.w	r5, r2, r3, lsl #12
    c872:	f43f aefd 	beq.w	c670 <__aeabi_dmul+0x1f8>
    c876:	4610      	mov	r0, r2
    c878:	4619      	mov	r1, r3
    c87a:	e722      	b.n	c6c2 <__aeabi_dmul+0x24a>
    c87c:	ea50 0641 	orrs.w	r6, r0, r1, lsl #1
    c880:	bf18      	it	ne
    c882:	ea52 0643 	orrsne.w	r6, r2, r3, lsl #1
    c886:	f47f aec5 	bne.w	c614 <__aeabi_dmul+0x19c>
    c88a:	ea50 0441 	orrs.w	r4, r0, r1, lsl #1
    c88e:	f47f af0d 	bne.w	c6ac <__aeabi_dmul+0x234>
    c892:	ea52 0543 	orrs.w	r5, r2, r3, lsl #1
    c896:	f47f aeeb 	bne.w	c670 <__aeabi_dmul+0x1f8>
    c89a:	e712      	b.n	c6c2 <__aeabi_dmul+0x24a>

0000c89c <__aeabi_d2iz>:
    c89c:	ea4f 0241 	mov.w	r2, r1, lsl #1
    c8a0:	f512 1200 	adds.w	r2, r2, #2097152	; 0x200000
    c8a4:	d215      	bcs.n	c8d2 <__aeabi_d2iz+0x36>
    c8a6:	d511      	bpl.n	c8cc <__aeabi_d2iz+0x30>
    c8a8:	f46f 7378 	mvn.w	r3, #992	; 0x3e0
    c8ac:	ebb3 5262 	subs.w	r2, r3, r2, asr #21
    c8b0:	d912      	bls.n	c8d8 <__aeabi_d2iz+0x3c>
    c8b2:	ea4f 23c1 	mov.w	r3, r1, lsl #11
    c8b6:	f043 4300 	orr.w	r3, r3, #2147483648	; 0x80000000
    c8ba:	ea43 5350 	orr.w	r3, r3, r0, lsr #21
    c8be:	f011 4f00 	tst.w	r1, #2147483648	; 0x80000000
    c8c2:	fa23 f002 	lsr.w	r0, r3, r2
    c8c6:	bf18      	it	ne
    c8c8:	4240      	negne	r0, r0
    c8ca:	4770      	bx	lr
    c8cc:	f04f 0000 	mov.w	r0, #0
    c8d0:	4770      	bx	lr
    c8d2:	ea50 3001 	orrs.w	r0, r0, r1, lsl #12
    c8d6:	d105      	bne.n	c8e4 <__aeabi_d2iz+0x48>
    c8d8:	f011 4000 	ands.w	r0, r1, #2147483648	; 0x80000000
    c8dc:	bf08      	it	eq
    c8de:	f06f 4000 	mvneq.w	r0, #2147483648	; 0x80000000
    c8e2:	4770      	bx	lr
    c8e4:	f04f 0000 	mov.w	r0, #0
    c8e8:	4770      	bx	lr
    c8ea:	bf00      	nop

0000c8ec <__aeabi_d2uiz>:
    c8ec:	004a      	lsls	r2, r1, #1
    c8ee:	d211      	bcs.n	c914 <__aeabi_d2uiz+0x28>
    c8f0:	f512 1200 	adds.w	r2, r2, #2097152	; 0x200000
    c8f4:	d211      	bcs.n	c91a <__aeabi_d2uiz+0x2e>
    c8f6:	d50d      	bpl.n	c914 <__aeabi_d2uiz+0x28>
    c8f8:	f46f 7378 	mvn.w	r3, #992	; 0x3e0
    c8fc:	ebb3 5262 	subs.w	r2, r3, r2, asr #21
    c900:	d40e      	bmi.n	c920 <__aeabi_d2uiz+0x34>
    c902:	ea4f 23c1 	mov.w	r3, r1, lsl #11
    c906:	f043 4300 	orr.w	r3, r3, #2147483648	; 0x80000000
    c90a:	ea43 5350 	orr.w	r3, r3, r0, lsr #21
    c90e:	fa23 f002 	lsr.w	r0, r3, r2
    c912:	4770      	bx	lr
    c914:	f04f 0000 	mov.w	r0, #0
    c918:	4770      	bx	lr
    c91a:	ea50 3001 	orrs.w	r0, r0, r1, lsl #12
    c91e:	d102      	bne.n	c926 <__aeabi_d2uiz+0x3a>
    c920:	f04f 30ff 	mov.w	r0, #4294967295	; 0xffffffff
    c924:	4770      	bx	lr
    c926:	f04f 0000 	mov.w	r0, #0
    c92a:	4770      	bx	lr

0000c92c <__gedf2>:
    c92c:	f04f 3cff 	mov.w	ip, #4294967295	; 0xffffffff
    c930:	e006      	b.n	c940 <__cmpdf2+0x4>
    c932:	bf00      	nop

0000c934 <__ledf2>:
    c934:	f04f 0c01 	mov.w	ip, #1
    c938:	e002      	b.n	c940 <__cmpdf2+0x4>
    c93a:	bf00      	nop

0000c93c <__cmpdf2>:
    c93c:	f04f 0c01 	mov.w	ip, #1
    c940:	f84d cd04 	str.w	ip, [sp, #-4]!
    c944:	ea4f 0c41 	mov.w	ip, r1, lsl #1
    c948:	ea7f 5c6c 	mvns.w	ip, ip, asr #21
    c94c:	ea4f 0c43 	mov.w	ip, r3, lsl #1
    c950:	bf18      	it	ne
    c952:	ea7f 5c6c 	mvnsne.w	ip, ip, asr #21
    c956:	d01b      	beq.n	c990 <__cmpdf2+0x54>
    c958:	b001      	add	sp, #4
    c95a:	ea50 0c41 	orrs.w	ip, r0, r1, lsl #1
    c95e:	bf0c      	ite	eq
    c960:	ea52 0c43 	orrseq.w	ip, r2, r3, lsl #1
    c964:	ea91 0f03 	teqne	r1, r3
    c968:	bf02      	ittt	eq
    c96a:	ea90 0f02 	teqeq	r0, r2
    c96e:	2000      	moveq	r0, #0
    c970:	4770      	bxeq	lr
    c972:	f110 0f00 	cmn.w	r0, #0
    c976:	ea91 0f03 	teq	r1, r3
    c97a:	bf58      	it	pl
    c97c:	4299      	cmppl	r1, r3
    c97e:	bf08      	it	eq
    c980:	4290      	cmpeq	r0, r2
    c982:	bf2c      	ite	cs
    c984:	17d8      	asrcs	r0, r3, #31
    c986:	ea6f 70e3 	mvncc.w	r0, r3, asr #31
    c98a:	f040 0001 	orr.w	r0, r0, #1
    c98e:	4770      	bx	lr
    c990:	ea4f 0c41 	mov.w	ip, r1, lsl #1
    c994:	ea7f 5c6c 	mvns.w	ip, ip, asr #21
    c998:	d102      	bne.n	c9a0 <__cmpdf2+0x64>
    c99a:	ea50 3c01 	orrs.w	ip, r0, r1, lsl #12
    c99e:	d107      	bne.n	c9b0 <__cmpdf2+0x74>
    c9a0:	ea4f 0c43 	mov.w	ip, r3, lsl #1
    c9a4:	ea7f 5c6c 	mvns.w	ip, ip, asr #21
    c9a8:	d1d6      	bne.n	c958 <__cmpdf2+0x1c>
    c9aa:	ea52 3c03 	orrs.w	ip, r2, r3, lsl #12
    c9ae:	d0d3      	beq.n	c958 <__cmpdf2+0x1c>
    c9b0:	f85d 0b04 	ldr.w	r0, [sp], #4
    c9b4:	4770      	bx	lr
    c9b6:	bf00      	nop

0000c9b8 <__aeabi_cdrcmple>:
    c9b8:	4684      	mov	ip, r0
    c9ba:	4610      	mov	r0, r2
    c9bc:	4662      	mov	r2, ip
    c9be:	468c      	mov	ip, r1
    c9c0:	4619      	mov	r1, r3
    c9c2:	4663      	mov	r3, ip
    c9c4:	e000      	b.n	c9c8 <__aeabi_cdcmpeq>
    c9c6:	bf00      	nop

0000c9c8 <__aeabi_cdcmpeq>:
    c9c8:	b501      	push	{r0, lr}
    c9ca:	f7ff ffb7 	bl	c93c <__cmpdf2>
    c9ce:	2800      	cmp	r0, #0
    c9d0:	bf48      	it	mi
    c9d2:	f110 0f00 	cmnmi.w	r0, #0
    c9d6:	bd01      	pop	{r0, pc}

0000c9d8 <__aeabi_dcmpeq>:
    c9d8:	f84d ed08 	str.w	lr, [sp, #-8]!
    c9dc:	f7ff fff4 	bl	c9c8 <__aeabi_cdcmpeq>
    c9e0:	bf0c      	ite	eq
    c9e2:	2001      	moveq	r0, #1
    c9e4:	2000      	movne	r0, #0
    c9e6:	f85d fb08 	ldr.w	pc, [sp], #8
    c9ea:	bf00      	nop

0000c9ec <__aeabi_dcmplt>:
    c9ec:	f84d ed08 	str.w	lr, [sp, #-8]!
    c9f0:	f7ff ffea 	bl	c9c8 <__aeabi_cdcmpeq>
    c9f4:	bf34      	ite	cc
    c9f6:	2001      	movcc	r0, #1
    c9f8:	2000      	movcs	r0, #0
    c9fa:	f85d fb08 	ldr.w	pc, [sp], #8
    c9fe:	bf00      	nop

0000ca00 <__aeabi_dcmple>:
    ca00:	f84d ed08 	str.w	lr, [sp, #-8]!
    ca04:	f7ff ffe0 	bl	c9c8 <__aeabi_cdcmpeq>
    ca08:	bf94      	ite	ls
    ca0a:	2001      	movls	r0, #1
    ca0c:	2000      	movhi	r0, #0
    ca0e:	f85d fb08 	ldr.w	pc, [sp], #8
    ca12:	bf00      	nop

0000ca14 <__aeabi_dcmpge>:
    ca14:	f84d ed08 	str.w	lr, [sp, #-8]!
    ca18:	f7ff ffce 	bl	c9b8 <__aeabi_cdrcmple>
    ca1c:	bf94      	ite	ls
    ca1e:	2001      	movls	r0, #1
    ca20:	2000      	movhi	r0, #0
    ca22:	f85d fb08 	ldr.w	pc, [sp], #8
    ca26:	bf00      	nop

0000ca28 <__aeabi_dcmpgt>:
    ca28:	f84d ed08 	str.w	lr, [sp, #-8]!
    ca2c:	f7ff ffc4 	bl	c9b8 <__aeabi_cdrcmple>
    ca30:	bf34      	ite	cc
    ca32:	2001      	movcc	r0, #1
    ca34:	2000      	movcs	r0, #0
    ca36:	f85d fb08 	ldr.w	pc, [sp], #8
    ca3a:	bf00      	nop

0000ca3c <__aeabi_dcmpun>:
    ca3c:	ea4f 0c41 	mov.w	ip, r1, lsl #1
    ca40:	ea7f 5c6c 	mvns.w	ip, ip, asr #21
    ca44:	d102      	bne.n	ca4c <__aeabi_dcmpun+0x10>
    ca46:	ea50 3c01 	orrs.w	ip, r0, r1, lsl #12
    ca4a:	d10a      	bne.n	ca62 <__aeabi_dcmpun+0x26>
    ca4c:	ea4f 0c43 	mov.w	ip, r3, lsl #1
    ca50:	ea7f 5c6c 	mvns.w	ip, ip, asr #21
    ca54:	d102      	bne.n	ca5c <__aeabi_dcmpun+0x20>
    ca56:	ea52 3c03 	orrs.w	ip, r2, r3, lsl #12
    ca5a:	d102      	bne.n	ca62 <__aeabi_dcmpun+0x26>
    ca5c:	f04f 0000 	mov.w	r0, #0
    ca60:	4770      	bx	lr
    ca62:	f04f 0001 	mov.w	r0, #1
    ca66:	4770      	bx	lr

0000ca68 <calc_func>:
                               list_cmp      cmp,
                               core_results *res);

ee_s16
calc_func(ee_s16 *pdata, core_results *res)
{
    ca68:	e92d 47f0 	stmdb	sp!, {r4, r5, r6, r7, r8, r9, sl, lr}
    ca6c:	b082      	sub	sp, #8
    ee_s16 data = *pdata;
    ca6e:	8807      	ldrh	r7, [r0, #0]
    ca70:	4681      	mov	r9, r0
    ee_s16 retval;
    ee_u8  optype
        = (data >> 7)
          & 1;  /* bit 7 indicates if the function result has been cached */
    if (optype) /* if cached, use cache */
    ca72:	0638      	lsls	r0, r7, #24
    ca74:	d42d      	bmi.n	cad2 <calc_func+0x6a>
        return (data & 0x007f);
    else
    {                             /* otherwise calculate and cache the result */
        ee_s16 flag = data & 0x7; /* bits 0-2 is type of function to perform */
        ee_s16 dtype
            = ((data >> 3)
    ca76:	f3c7 00c3 	ubfx	r0, r7, #3, #4
               & 0xf);       /* bits 3-6 is specific data for the operation */
        dtype |= dtype << 4; /* replicate the lower 4 bits to get an 8b value */
    ca7a:	ea40 1400 	orr.w	r4, r0, r0, lsl #4
    ca7e:	f007 0007 	and.w	r0, r7, #7
                break;
            default:
                retval = data;
                break;
        }
        res->crc = crcu16(retval, res->crc);
    ca82:	f240 0830 	movw	r8, #48	; 0x30
    ca86:	460d      	mov	r5, r1
    ca88:	2801      	cmp	r0, #1
    ca8a:	f2c1 0800 	movt	r8, #4096	; 0x1000
    ca8e:	d025      	beq.n	cadc <calc_func+0x74>
    ca90:	2800      	cmp	r0, #0
    ca92:	463e      	mov	r6, r7
    ca94:	d148      	bne.n	cb28 <calc_func+0xc0>
    ca96:	2c22      	cmp	r4, #34	; 0x22
    ca98:	bf98      	it	ls
    ca9a:	2422      	movls	r4, #34	; 0x22
                retval = core_bench_state(res->size,
    ca9c:	f8d8 6000 	ldr.w	r6, [r8]
                                          res->memblock[3],
    caa0:	e9d5 1005 	ldrd	r1, r0, [r5, #20]
                                          res->seed1,
    caa4:	f9b5 2000 	ldrsh.w	r2, [r5]
                                          res->seed2,
    caa8:	f9b5 3002 	ldrsh.w	r3, [r5, #2]
                                          res->crc);
    caac:	f8b5 c038 	ldrh.w	ip, [r5, #56]	; 0x38
                retval = core_bench_state(res->size,
    cab0:	3601      	adds	r6, #1
    cab2:	f8c8 6000 	str.w	r6, [r8]
    cab6:	e9cd 4c00 	strd	r4, ip, [sp]
    caba:	f002 fb63 	bl	f184 <core_bench_state>
                if (res->crcstate == 0)
    cabe:	8fe9      	ldrh	r1, [r5, #62]	; 0x3e
                retval = core_bench_state(res->size,
    cac0:	4606      	mov	r6, r0
                if (res->crcstate == 0)
    cac2:	bb89      	cbnz	r1, cb28 <calc_func+0xc0>
                    res->crcstate = retval;
    cac4:	f8d8 0000 	ldr.w	r0, [r8]
    cac8:	3001      	adds	r0, #1
    caca:	f8c8 0000 	str.w	r0, [r8]
    cace:	87ee      	strh	r6, [r5, #62]	; 0x3e
    cad0:	e02a      	b.n	cb28 <calc_func+0xc0>
        return (data & 0x007f);
    cad2:	f007 007f 	and.w	r0, r7, #127	; 0x7f
        retval &= 0x007f;
        *pdata = (data & 0xff00) | 0x0080 | retval; /* cache the result */
        return retval;
    }
}
    cad6:	b002      	add	sp, #8
    cad8:	e8bd 87f0 	ldmia.w	sp!, {r4, r5, r6, r7, r8, r9, sl, pc}
                retval = core_bench_matrix(&(res->mat), dtype, res->crc);
    cadc:	f8d8 6000 	ldr.w	r6, [r8]
    cae0:	f8b5 a038 	ldrh.w	sl, [r5, #56]	; 0x38
    cae4:	1c70      	adds	r0, r6, #1
    cae6:	f8c8 0000 	str.w	r0, [r8]
        changing the matrix values slightly by a constant amount each time.
*/
ee_u16
core_bench_matrix(mat_params *p, ee_s16 seed, ee_u16 crc)
{
    ee_u32  N   = p->N;
    caea:	f105 0328 	add.w	r3, r5, #40	; 0x28
    caee:	cb0d      	ldmia	r3, {r0, r2, r3}
    MATRES *C   = p->C;
    caf0:	6b69      	ldr	r1, [r5, #52]	; 0x34
    MATDAT *A   = p->A;
    MATDAT *B   = p->B;
    MATDAT  val = (MATDAT)seed;

    crc = crc16(matrix_test(N, C, A, B, val), crc);
    caf2:	3602      	adds	r6, #2
    caf4:	f8c8 6000 	str.w	r6, [r8]
    caf8:	9400      	str	r4, [sp, #0]
    cafa:	f001 fb73 	bl	e1e4 <matrix_test>
    cafe:	f8d8 1000 	ldr.w	r1, [r8]
    return crc;
}
ee_u16
crc16(ee_s16 newval, ee_u16 crc)
{
    return crcu16((ee_u16)newval, crc);
    cb02:	b280      	uxth	r0, r0
    cb04:	1c4a      	adds	r2, r1, #1
    cb06:	3102      	adds	r1, #2
    cb08:	f8c8 2000 	str.w	r2, [r8]
    cb0c:	f8c8 1000 	str.w	r1, [r8]
    cb10:	4651      	mov	r1, sl
    cb12:	f002 fd16 	bl	f542 <crcu16>
                if (res->crcmatrix == 0)
    cb16:	8fa9      	ldrh	r1, [r5, #60]	; 0x3c
    cb18:	4606      	mov	r6, r0
    cb1a:	b929      	cbnz	r1, cb28 <calc_func+0xc0>
                    res->crcmatrix = retval;
    cb1c:	f8d8 0000 	ldr.w	r0, [r8]
    cb20:	3001      	adds	r0, #1
    cb22:	f8c8 0000 	str.w	r0, [r8]
    cb26:	87ae      	strh	r6, [r5, #60]	; 0x3c
        res->crc = crcu16(retval, res->crc);
    cb28:	f8d8 0000 	ldr.w	r0, [r8]
    cb2c:	8f29      	ldrh	r1, [r5, #56]	; 0x38
    cb2e:	3001      	adds	r0, #1
    cb30:	f8c8 0000 	str.w	r0, [r8]
    cb34:	4630      	mov	r0, r6
    cb36:	f002 fd04 	bl	f542 <crcu16>
        *pdata = (data & 0xff00) | 0x0080 | retval; /* cache the result */
    cb3a:	f366 0706 	bfi	r7, r6, #0, #7
    cb3e:	f047 0180 	orr.w	r1, r7, #128	; 0x80
        res->crc = crcu16(retval, res->crc);
    cb42:	8728      	strh	r0, [r5, #56]	; 0x38
        retval &= 0x007f;
    cb44:	f006 007f 	and.w	r0, r6, #127	; 0x7f
        *pdata = (data & 0xff00) | 0x0080 | retval; /* cache the result */
    cb48:	f8a9 1000 	strh.w	r1, [r9]
}
    cb4c:	b002      	add	sp, #8
    cb4e:	e8bd 87f0 	ldmia.w	sp!, {r4, r5, r6, r7, r8, r9, sl, pc}
    cb52:	d4d4      	bmi.n	cafe <calc_func+0x96>

0000cb54 <core_bench_list>:
        - Single remove/reinsert
        * At the end of this function, the list is back to original state
*/
ee_u16
core_bench_list(core_results *res, ee_s16 finder_idx)
{
    cb54:	e92d 4ff0 	stmdb	sp!, {r4, r5, r6, r7, r8, r9, sl, fp, lr}
    cb58:	b089      	sub	sp, #36	; 0x24
    ee_u16     retval = 0;
    ee_u16     found = 0, missed = 0;
    list_head *list     = res->list;
    ee_s16     find_num = res->seed3;
    cb5a:	f9b0 e004 	ldrsh.w	lr, [r0, #4]
    list_head *list     = res->list;
    cb5e:	6a44      	ldr	r4, [r0, #36]	; 0x24
    cb60:	f240 0530 	movw	r5, #48	; 0x30
    cb64:	f04f 3bff 	mov.w	fp, #4294967295	; 0xffffffff
    cb68:	f04f 0a00 	mov.w	sl, #0
    ee_s16     i;

    info.idx = finder_idx;
    /* find <find_num> values in the list, and change the list each time
     * (reverse and cache if value found) */
    for (i = 0; i < find_num; i++)
    cb6c:	f1be 0f01 	cmp.w	lr, #1
    cb70:	f2c1 0500 	movt	r5, #4096	; 0x1000
    cb74:	9006      	str	r0, [sp, #24]
    cb76:	f2c0 80de 	blt.w	cd36 <core_bench_list+0x1e2>
    cb7a:	2600      	movs	r6, #0
    cb7c:	2000      	movs	r0, #0
    cb7e:	f04f 0c00 	mov.w	ip, #0
    cb82:	f04f 0800 	mov.w	r8, #0
    cb86:	9002      	str	r0, [sp, #8]
    cb88:	4608      	mov	r0, r1
    cb8a:	9103      	str	r1, [sp, #12]
    cb8c:	e005      	b.n	cb9a <core_bench_list+0x46>
    cb8e:	bf00      	nop
    cb90:	1c70      	adds	r0, r6, #1
    cb92:	b206      	sxth	r6, r0
    cb94:	4576      	cmp	r6, lr
    cb96:	f280 80c9 	bge.w	cd2c <core_bench_list+0x1d8>
        Found item, or NULL if not found.
*/
list_head *
core_list_find(list_head *list, list_data *info)
{
    if (info->idx >= 0)
    cb9a:	9a03      	ldr	r2, [sp, #12]
        this_find   = core_list_find(list, &info);
    cb9c:	682b      	ldr	r3, [r5, #0]
    if (info->idx >= 0)
    cb9e:	fa0f f982 	sxth.w	r9, r2
        this_find   = core_list_find(list, &info);
    cba2:	1c58      	adds	r0, r3, #1
    if (info->idx >= 0)
    cba4:	45d9      	cmp	r9, fp
        this_find   = core_list_find(list, &info);
    cba6:	6028      	str	r0, [r5, #0]
    if (info->idx >= 0)
    cba8:	dd20      	ble.n	cbec <core_bench_list+0x98>
    {
        while (list && (list->info->idx != info->idx))
    cbaa:	2c00      	cmp	r4, #0
    cbac:	d03c      	beq.n	cc28 <core_bench_list+0xd4>
    cbae:	4620      	mov	r0, r4
    cbb0:	6842      	ldr	r2, [r0, #4]
    cbb2:	4625      	mov	r5, r4
    cbb4:	9c03      	ldr	r4, [sp, #12]
    cbb6:	8852      	ldrh	r2, [r2, #2]
    cbb8:	b2a7      	uxth	r7, r4
    cbba:	42ba      	cmp	r2, r7
    cbbc:	d03d      	beq.n	cc3a <core_bench_list+0xe6>
            list = list->next;
    cbbe:	6800      	ldr	r0, [r0, #0]
        while (list && (list->info->idx != info->idx))
    cbc0:	b3d0      	cbz	r0, cc38 <core_bench_list+0xe4>
    cbc2:	6842      	ldr	r2, [r0, #4]
    cbc4:	8852      	ldrh	r2, [r2, #2]
    cbc6:	42ba      	cmp	r2, r7
    cbc8:	d037      	beq.n	cc3a <core_bench_list+0xe6>
            list = list->next;
    cbca:	6800      	ldr	r0, [r0, #0]
    cbcc:	462c      	mov	r4, r5
        while (list && (list->info->idx != info->idx))
    cbce:	b348      	cbz	r0, cc24 <core_bench_list+0xd0>
    cbd0:	6842      	ldr	r2, [r0, #4]
    cbd2:	8852      	ldrh	r2, [r2, #2]
    cbd4:	42ba      	cmp	r2, r7
    cbd6:	d031      	beq.n	cc3c <core_bench_list+0xe8>
            list = list->next;
    cbd8:	6800      	ldr	r0, [r0, #0]
        while (list && (list->info->idx != info->idx))
    cbda:	b318      	cbz	r0, cc24 <core_bench_list+0xd0>
    cbdc:	6842      	ldr	r2, [r0, #4]
    cbde:	8852      	ldrh	r2, [r2, #2]
    cbe0:	42ba      	cmp	r2, r7
    cbe2:	d02b      	beq.n	cc3c <core_bench_list+0xe8>
            list = list->next;
    cbe4:	6800      	ldr	r0, [r0, #0]
        while (list && (list->info->idx != info->idx))
    cbe6:	2800      	cmp	r0, #0
    cbe8:	d1e2      	bne.n	cbb0 <core_bench_list+0x5c>
    cbea:	e01b      	b.n	cc24 <core_bench_list+0xd0>
    cbec:	4620      	mov	r0, r4
        return list;
    }
    else
    {
        while (list && ((list->info->data16 & 0xff) != info->data16))
    cbee:	b1dc      	cbz	r4, cc28 <core_bench_list+0xd4>
    cbf0:	6842      	ldr	r2, [r0, #4]
    cbf2:	b2f7      	uxtb	r7, r6
    cbf4:	7812      	ldrb	r2, [r2, #0]
    cbf6:	407a      	eors	r2, r7
    cbf8:	d020      	beq.n	cc3c <core_bench_list+0xe8>
            list = list->next;
    cbfa:	6800      	ldr	r0, [r0, #0]
    cbfc:	b190      	cbz	r0, cc24 <core_bench_list+0xd0>
        while (list && ((list->info->data16 & 0xff) != info->data16))
    cbfe:	6842      	ldr	r2, [r0, #4]
    cc00:	7812      	ldrb	r2, [r2, #0]
    cc02:	407a      	eors	r2, r7
    cc04:	d01a      	beq.n	cc3c <core_bench_list+0xe8>
            list = list->next;
    cc06:	6800      	ldr	r0, [r0, #0]
        while (list && ((list->info->data16 & 0xff) != info->data16))
    cc08:	b160      	cbz	r0, cc24 <core_bench_list+0xd0>
    cc0a:	6842      	ldr	r2, [r0, #4]
    cc0c:	7812      	ldrb	r2, [r2, #0]
    cc0e:	407a      	eors	r2, r7
    cc10:	d014      	beq.n	cc3c <core_bench_list+0xe8>
            list = list->next;
    cc12:	6800      	ldr	r0, [r0, #0]
        while (list && ((list->info->data16 & 0xff) != info->data16))
    cc14:	b130      	cbz	r0, cc24 <core_bench_list+0xd0>
    cc16:	6842      	ldr	r2, [r0, #4]
    cc18:	7812      	ldrb	r2, [r2, #0]
    cc1a:	407a      	eors	r2, r7
    cc1c:	d00e      	beq.n	cc3c <core_bench_list+0xe8>
            list = list->next;
    cc1e:	6800      	ldr	r0, [r0, #0]
        while (list && ((list->info->data16 & 0xff) != info->data16))
    cc20:	2800      	cmp	r0, #0
    cc22:	d1e5      	bne.n	cbf0 <core_bench_list+0x9c>
    cc24:	2000      	movs	r0, #0
    cc26:	e009      	b.n	cc3c <core_bench_list+0xe8>
        list        = core_list_reverse(list);
    cc28:	f240 0230 	movw	r2, #48	; 0x30
    cc2c:	1c98      	adds	r0, r3, #2
    cc2e:	f2c1 0200 	movt	r2, #4096	; 0x1000
    cc32:	6010      	str	r0, [r2, #0]
    cc34:	2400      	movs	r4, #0
    cc36:	e059      	b.n	ccec <core_bench_list+0x198>
    cc38:	2000      	movs	r0, #0
    cc3a:	462c      	mov	r4, r5
    cc3c:	f240 0530 	movw	r5, #48	; 0x30
    cc40:	1c9a      	adds	r2, r3, #2
    cc42:	f2c1 0500 	movt	r5, #4096	; 0x1000
    cc46:	602a      	str	r2, [r5, #0]

list_head *
core_list_reverse(list_head *list)
{
    list_head *next = NULL, *tmp;
    while (list)
    cc48:	b334      	cbz	r4, cc98 <core_bench_list+0x144>
    {
        tmp        = list->next;
    cc4a:	6827      	ldr	r7, [r4, #0]
        list->next = next;
    cc4c:	1cda      	adds	r2, r3, #3
    cc4e:	602a      	str	r2, [r5, #0]
    cc50:	f8c4 a000 	str.w	sl, [r4]
    while (list)
    cc54:	b30f      	cbz	r7, cc9a <core_bench_list+0x146>
    cc56:	f240 0530 	movw	r5, #48	; 0x30
    cc5a:	f2c1 0500 	movt	r5, #4096	; 0x1000
    cc5e:	bf00      	nop
        list->next = next;
    cc60:	682a      	ldr	r2, [r5, #0]
        tmp        = list->next;
    cc62:	683b      	ldr	r3, [r7, #0]
        list->next = next;
    cc64:	3201      	adds	r2, #1
    cc66:	602a      	str	r2, [r5, #0]
    cc68:	603c      	str	r4, [r7, #0]
    while (list)
    cc6a:	b3db      	cbz	r3, cce4 <core_bench_list+0x190>
        list->next = next;
    cc6c:	682c      	ldr	r4, [r5, #0]
        tmp        = list->next;
    cc6e:	681a      	ldr	r2, [r3, #0]
        list->next = next;
    cc70:	3401      	adds	r4, #1
    while (list)
    cc72:	2a00      	cmp	r2, #0
        list->next = next;
    cc74:	602c      	str	r4, [r5, #0]
    cc76:	601f      	str	r7, [r3, #0]
    while (list)
    cc78:	d050      	beq.n	cd1c <core_bench_list+0x1c8>
        list->next = next;
    cc7a:	682f      	ldr	r7, [r5, #0]
        tmp        = list->next;
    cc7c:	6814      	ldr	r4, [r2, #0]
        list->next = next;
    cc7e:	3701      	adds	r7, #1
    while (list)
    cc80:	2c00      	cmp	r4, #0
        list->next = next;
    cc82:	602f      	str	r7, [r5, #0]
    cc84:	6013      	str	r3, [r2, #0]
    while (list)
    cc86:	d04d      	beq.n	cd24 <core_bench_list+0x1d0>
        list->next = next;
    cc88:	682b      	ldr	r3, [r5, #0]
        tmp        = list->next;
    cc8a:	6827      	ldr	r7, [r4, #0]
        list->next = next;
    cc8c:	3301      	adds	r3, #1
    while (list)
    cc8e:	2f00      	cmp	r7, #0
        list->next = next;
    cc90:	602b      	str	r3, [r5, #0]
    cc92:	6022      	str	r2, [r4, #0]
    while (list)
    cc94:	d1e4      	bne.n	cc60 <core_bench_list+0x10c>
    cc96:	e000      	b.n	cc9a <core_bench_list+0x146>
    cc98:	2400      	movs	r4, #0
        if (this_find == NULL)
    cc9a:	b338      	cbz	r0, ccec <core_bench_list+0x198>
            if (this_find->info->data16 & 0x1) /* use found value */
    cc9c:	6842      	ldr	r2, [r0, #4]
            found++;
    cc9e:	f10c 0c01 	add.w	ip, ip, #1
            if (this_find->info->data16 & 0x1) /* use found value */
    cca2:	8812      	ldrh	r2, [r2, #0]
    cca4:	07d3      	lsls	r3, r2, #31
    cca6:	d004      	beq.n	ccb2 <core_bench_list+0x15e>
                retval += (this_find->info->data16 >> 9) & 1;
    cca8:	f3c2 2240 	ubfx	r2, r2, #9, #1
    ccac:	9b02      	ldr	r3, [sp, #8]
    ccae:	4413      	add	r3, r2
    ccb0:	9302      	str	r3, [sp, #8]
            if (this_find->next != NULL)
    ccb2:	6802      	ldr	r2, [r0, #0]
    ccb4:	b322      	cbz	r2, cd00 <core_bench_list+0x1ac>
    ccb6:	f240 0330 	movw	r3, #48	; 0x30
    ccba:	f2c1 0300 	movt	r3, #4096	; 0x1000
    ccbe:	461d      	mov	r5, r3
                this_find->next = finder->next;
    ccc0:	681b      	ldr	r3, [r3, #0]
    ccc2:	6817      	ldr	r7, [r2, #0]
    ccc4:	3301      	adds	r3, #1
    ccc6:	602b      	str	r3, [r5, #0]
    ccc8:	6007      	str	r7, [r0, #0]
                finder->next    = list->next;
    ccca:	6828      	ldr	r0, [r5, #0]
    cccc:	6823      	ldr	r3, [r4, #0]
    ccce:	3001      	adds	r0, #1
    ccd0:	6028      	str	r0, [r5, #0]
    ccd2:	6013      	str	r3, [r2, #0]
                list->next      = finder;
    ccd4:	6022      	str	r2, [r4, #0]
    ccd6:	f240 0530 	movw	r5, #48	; 0x30
    ccda:	f2c1 0500 	movt	r5, #4096	; 0x1000
        if (info.idx >= 0)
    ccde:	45d9      	cmp	r9, fp
    cce0:	dc15      	bgt.n	cd0e <core_bench_list+0x1ba>
    cce2:	e755      	b.n	cb90 <core_bench_list+0x3c>
    cce4:	463c      	mov	r4, r7
        if (this_find == NULL)
    cce6:	2800      	cmp	r0, #0
    cce8:	d1d8      	bne.n	cc9c <core_bench_list+0x148>
    ccea:	bf00      	nop
            retval += (list->next->info->data16 >> 8) & 1;
    ccec:	6820      	ldr	r0, [r4, #0]
            missed++;
    ccee:	f108 0801 	add.w	r8, r8, #1
            retval += (list->next->info->data16 >> 8) & 1;
    ccf2:	6840      	ldr	r0, [r0, #4]
    ccf4:	8800      	ldrh	r0, [r0, #0]
    ccf6:	f3c0 2000 	ubfx	r0, r0, #8, #1
    ccfa:	9a02      	ldr	r2, [sp, #8]
    ccfc:	4402      	add	r2, r0
        }
    ccfe:	9202      	str	r2, [sp, #8]
    cd00:	f240 0530 	movw	r5, #48	; 0x30
    cd04:	f2c1 0500 	movt	r5, #4096	; 0x1000
        if (info.idx >= 0)
    cd08:	45d9      	cmp	r9, fp
    cd0a:	f77f af41 	ble.w	cb90 <core_bench_list+0x3c>
            info.idx++;
    cd0e:	6828      	ldr	r0, [r5, #0]
    cd10:	9a03      	ldr	r2, [sp, #12]
    cd12:	3001      	adds	r0, #1
    cd14:	3201      	adds	r2, #1
    cd16:	9203      	str	r2, [sp, #12]
    cd18:	6028      	str	r0, [r5, #0]
    cd1a:	e739      	b.n	cb90 <core_bench_list+0x3c>
    cd1c:	461c      	mov	r4, r3
        if (this_find == NULL)
    cd1e:	2800      	cmp	r0, #0
    cd20:	d1bc      	bne.n	cc9c <core_bench_list+0x148>
    cd22:	e7e3      	b.n	ccec <core_bench_list+0x198>
    cd24:	4614      	mov	r4, r2
    cd26:	2800      	cmp	r0, #0
    cd28:	d1b8      	bne.n	cc9c <core_bench_list+0x148>
    cd2a:	e7df      	b.n	ccec <core_bench_list+0x198>
    for (i = 0; i < find_num; i++)
    cd2c:	f1ae 0001 	sub.w	r0, lr, #1
    cd30:	fa5f fa80 	uxtb.w	sl, r0
    cd34:	e007      	b.n	cd46 <core_bench_list+0x1f2>
    cd36:	4608      	mov	r0, r1
    cd38:	2000      	movs	r0, #0
    cd3a:	9103      	str	r1, [sp, #12]
    cd3c:	f04f 0800 	mov.w	r8, #0
    ee_u16     found = 0, missed = 0;
    cd40:	f04f 0c00 	mov.w	ip, #0
    cd44:	9002      	str	r0, [sp, #8]
    if (finder_idx > 0)
    cd46:	2901      	cmp	r1, #1
    retval += found * 4 - missed;
    cd48:	ebc8 008c 	rsb	r0, r8, ip, lsl #2
    cd4c:	f8cd a004 	str.w	sl, [sp, #4]
    if (finder_idx > 0)
    cd50:	9000      	str	r0, [sp, #0]
    cd52:	f2c0 80e2 	blt.w	cf1a <core_bench_list+0x3c6>
        list = core_list_mergesort(list, cmp_complex, res);
    cd56:	6828      	ldr	r0, [r5, #0]
    cd58:	3001      	adds	r0, #1
    cd5a:	6028      	str	r0, [r5, #0]
    cd5c:	2001      	movs	r0, #1
        list = NULL;
        tail = NULL;

        nmerges = 0; /* count number of merges we do in this pass */

        while (p)
    cd5e:	9004      	str	r0, [sp, #16]
    cd60:	b9bc      	cbnz	r4, cd92 <core_bench_list+0x23e>
    cd62:	bf00      	nop
    cd64:	2100      	movs	r1, #0
        tail = NULL;
    cd66:	f04f 0800 	mov.w	r8, #0
        list = NULL;
    cd6a:	f04f 0b00 	mov.w	fp, #0

            /* now p has stepped `insize' places along, and q has too */
            p = q;
        }

        tail->next = NULL;
    cd6e:	6828      	ldr	r0, [r5, #0]

        /* If we have done only one merge, we're finished. */
        if (nmerges <= 1) /* allow for nmerges==0, the empty list case */
    cd70:	2901      	cmp	r1, #1
        tail->next = NULL;
    cd72:	f100 0001 	add.w	r0, r0, #1
    cd76:	6028      	str	r0, [r5, #0]
    cd78:	f04f 0000 	mov.w	r0, #0
    cd7c:	f8c8 0000 	str.w	r0, [r8]
    cd80:	9804      	ldr	r0, [sp, #16]
    cd82:	465c      	mov	r4, fp
            return list;

        /* Otherwise repeat, merging lists twice the size */
        insize *= 2;
    cd84:	ea4f 0040 	mov.w	r0, r0, lsl #1
    cd88:	f240 80c8 	bls.w	cf1c <core_bench_list+0x3c8>
        while (p)
    cd8c:	2c00      	cmp	r4, #0
    cd8e:	9004      	str	r0, [sp, #16]
    cd90:	d0e8      	beq.n	cd64 <core_bench_list+0x210>
    cd92:	f04f 0b00 	mov.w	fp, #0
    cd96:	f04f 0800 	mov.w	r8, #0
    cd9a:	2100      	movs	r1, #0
    cd9c:	e003      	b.n	cda6 <core_bench_list+0x252>
    cd9e:	bf00      	nop
    cda0:	9905      	ldr	r1, [sp, #20]
    cda2:	2c00      	cmp	r4, #0
    cda4:	d0e3      	beq.n	cd6e <core_bench_list+0x21a>
            nmerges++; /* there exists a merge to be done */
    cda6:	3101      	adds	r1, #1
    cda8:	9b04      	ldr	r3, [sp, #16]
    cdaa:	4640      	mov	r0, r8
    cdac:	4627      	mov	r7, r4
    cdae:	9105      	str	r1, [sp, #20]
    cdb0:	2100      	movs	r1, #0
    cdb2:	f04f 0903 	mov.w	r9, #3
            for (i = 0; i < insize; i++)
    cdb6:	f1a9 0203 	sub.w	r2, r9, #3
    cdba:	429a      	cmp	r2, r3
    cdbc:	da20      	bge.n	ce00 <core_bench_list+0x2ac>
                q = q->next;
    cdbe:	6824      	ldr	r4, [r4, #0]
    cdc0:	f1a9 0202 	sub.w	r2, r9, #2
                if (!q)
    cdc4:	b1dc      	cbz	r4, cdfe <core_bench_list+0x2aa>
            for (i = 0; i < insize; i++)
    cdc6:	429a      	cmp	r2, r3
    cdc8:	da22      	bge.n	ce10 <core_bench_list+0x2bc>
                q = q->next;
    cdca:	6824      	ldr	r4, [r4, #0]
                if (!q)
    cdcc:	b34c      	cbz	r4, ce22 <core_bench_list+0x2ce>
    cdce:	f1a9 0201 	sub.w	r2, r9, #1
            for (i = 0; i < insize; i++)
    cdd2:	429a      	cmp	r2, r3
    cdd4:	da14      	bge.n	ce00 <core_bench_list+0x2ac>
                q = q->next;
    cdd6:	6824      	ldr	r4, [r4, #0]
                if (!q)
    cdd8:	b36c      	cbz	r4, ce36 <core_bench_list+0x2e2>
            for (i = 0; i < insize; i++)
    cdda:	4599      	cmp	r9, r3
    cddc:	da33      	bge.n	ce46 <core_bench_list+0x2f2>
                q = q->next;
    cdde:	6824      	ldr	r4, [r4, #0]
                psize++;
    cde0:	3104      	adds	r1, #4
                if (!q)
    cde2:	2c00      	cmp	r4, #0
    cde4:	f109 0904 	add.w	r9, r9, #4
    cde8:	d1e5      	bne.n	cdb6 <core_bench_list+0x262>
    cdea:	f1a9 0903 	sub.w	r9, r9, #3
    cdee:	2400      	movs	r4, #0
    cdf0:	4680      	mov	r8, r0
    cdf2:	f8cd b01c 	str.w	fp, [sp, #28]
            while (psize > 0 || (qsize > 0 && q))
    cdf6:	f1b9 0f00 	cmp.w	r9, #0
    cdfa:	dc7b      	bgt.n	cef4 <core_bench_list+0x3a0>
    cdfc:	e05a      	b.n	ceb4 <core_bench_list+0x360>
    cdfe:	2400      	movs	r4, #0
    ce00:	4691      	mov	r9, r2
    ce02:	4680      	mov	r8, r0
    ce04:	f8cd b01c 	str.w	fp, [sp, #28]
    ce08:	f1b9 0f00 	cmp.w	r9, #0
    ce0c:	dc72      	bgt.n	cef4 <core_bench_list+0x3a0>
    ce0e:	e051      	b.n	ceb4 <core_bench_list+0x360>
    ce10:	f041 0901 	orr.w	r9, r1, #1
    ce14:	4680      	mov	r8, r0
    ce16:	f8cd b01c 	str.w	fp, [sp, #28]
    ce1a:	f1b9 0f00 	cmp.w	r9, #0
    ce1e:	dc69      	bgt.n	cef4 <core_bench_list+0x3a0>
    ce20:	e048      	b.n	ceb4 <core_bench_list+0x360>
    ce22:	f041 0902 	orr.w	r9, r1, #2
    ce26:	2400      	movs	r4, #0
    ce28:	4680      	mov	r8, r0
    ce2a:	f8cd b01c 	str.w	fp, [sp, #28]
    ce2e:	f1b9 0f00 	cmp.w	r9, #0
    ce32:	dc5f      	bgt.n	cef4 <core_bench_list+0x3a0>
    ce34:	e03e      	b.n	ceb4 <core_bench_list+0x360>
    ce36:	2400      	movs	r4, #0
    ce38:	4680      	mov	r8, r0
    ce3a:	f8cd b01c 	str.w	fp, [sp, #28]
    ce3e:	f1b9 0f00 	cmp.w	r9, #0
    ce42:	dc57      	bgt.n	cef4 <core_bench_list+0x3a0>
    ce44:	e036      	b.n	ceb4 <core_bench_list+0x360>
    ce46:	f041 0903 	orr.w	r9, r1, #3
    ce4a:	4680      	mov	r8, r0
    ce4c:	f8cd b01c 	str.w	fp, [sp, #28]
    ce50:	f1b9 0f00 	cmp.w	r9, #0
    ce54:	dc4e      	bgt.n	cef4 <core_bench_list+0x3a0>
    ce56:	e02d      	b.n	ceb4 <core_bench_list+0x360>
                else if (cmp(p->info, q->info, res) <= 0)
    ce58:	6829      	ldr	r1, [r5, #0]
    ce5a:	9308      	str	r3, [sp, #32]
    ce5c:	1c4a      	adds	r2, r1, #1
    ee_s16 val1 = calc_func(&(a->data16), res);
    ce5e:	3102      	adds	r1, #2
                else if (cmp(p->info, q->info, res) <= 0)
    ce60:	6878      	ldr	r0, [r7, #4]
    ce62:	f8d4 a004 	ldr.w	sl, [r4, #4]
    ce66:	602a      	str	r2, [r5, #0]
    ee_s16 val1 = calc_func(&(a->data16), res);
    ce68:	6029      	str	r1, [r5, #0]
    ce6a:	f8dd b018 	ldr.w	fp, [sp, #24]
    ce6e:	4659      	mov	r1, fp
    ce70:	f7ff fdfa 	bl	ca68 <calc_func>
    ee_s16 val2 = calc_func(&(b->data16), res);
    ce74:	6829      	ldr	r1, [r5, #0]
    ee_s16 val1 = calc_func(&(a->data16), res);
    ce76:	4606      	mov	r6, r0
    ee_s16 val2 = calc_func(&(b->data16), res);
    ce78:	1c48      	adds	r0, r1, #1
    ce7a:	6028      	str	r0, [r5, #0]
    ce7c:	4650      	mov	r0, sl
    ce7e:	4659      	mov	r1, fp
    ce80:	f7ff fdf2 	bl	ca68 <calc_func>
                else if (cmp(p->info, q->info, res) <= 0)
    ce84:	4286      	cmp	r6, r0
    ce86:	dd27      	ble.n	ced8 <core_bench_list+0x384>
    ce88:	9b08      	ldr	r3, [sp, #32]
    ce8a:	4620      	mov	r0, r4
                    q = q->next;
    ce8c:	6824      	ldr	r4, [r4, #0]
    ce8e:	f240 0530 	movw	r5, #48	; 0x30
    ce92:	f8dd b01c 	ldr.w	fp, [sp, #28]
                    qsize--;
    ce96:	3b01      	subs	r3, #1
    ce98:	f2c1 0500 	movt	r5, #4096	; 0x1000
                if (tail)
    ce9c:	f1b8 0f00 	cmp.w	r8, #0
    cea0:	d033      	beq.n	cf0a <core_bench_list+0x3b6>
                    tail->next = e;
    cea2:	6829      	ldr	r1, [r5, #0]
    cea4:	3101      	adds	r1, #1
    cea6:	6029      	str	r1, [r5, #0]
    cea8:	f8c8 0000 	str.w	r0, [r8]
    ceac:	4680      	mov	r8, r0
            while (psize > 0 || (qsize > 0 && q))
    ceae:	f1b9 0f00 	cmp.w	r9, #0
    ceb2:	dc1f      	bgt.n	cef4 <core_bench_list+0x3a0>
    ceb4:	2c00      	cmp	r4, #0
    ceb6:	f43f af73 	beq.w	cda0 <core_bench_list+0x24c>
    ceba:	2b01      	cmp	r3, #1
    cebc:	f6ff af70 	blt.w	cda0 <core_bench_list+0x24c>
                if (psize == 0)
    cec0:	f1b9 0f00 	cmp.w	r9, #0
    cec4:	d116      	bne.n	cef4 <core_bench_list+0x3a0>
    cec6:	4620      	mov	r0, r4
                    q = q->next;
    cec8:	6824      	ldr	r4, [r4, #0]
                    qsize--;
    ceca:	3b01      	subs	r3, #1
    cecc:	f04f 0900 	mov.w	r9, #0
                if (tail)
    ced0:	f1b8 0f00 	cmp.w	r8, #0
    ced4:	d1e5      	bne.n	cea2 <core_bench_list+0x34e>
    ced6:	e018      	b.n	cf0a <core_bench_list+0x3b6>
    ced8:	4638      	mov	r0, r7
                    p = p->next;
    ceda:	683f      	ldr	r7, [r7, #0]
    cedc:	f240 0530 	movw	r5, #48	; 0x30
    cee0:	e9dd b307 	ldrd	fp, r3, [sp, #28]
                    psize--;
    cee4:	f1a9 0901 	sub.w	r9, r9, #1
    cee8:	f2c1 0500 	movt	r5, #4096	; 0x1000
                if (tail)
    ceec:	f1b8 0f00 	cmp.w	r8, #0
    cef0:	d1d7      	bne.n	cea2 <core_bench_list+0x34e>
    cef2:	e00a      	b.n	cf0a <core_bench_list+0x3b6>
                else if (qsize == 0 || !q)
    cef4:	2c00      	cmp	r4, #0
    cef6:	bf18      	it	ne
    cef8:	2b00      	cmpne	r3, #0
    cefa:	d1ad      	bne.n	ce58 <core_bench_list+0x304>
    cefc:	4638      	mov	r0, r7
                    p = p->next;
    cefe:	683f      	ldr	r7, [r7, #0]
                    psize--;
    cf00:	f1a9 0901 	sub.w	r9, r9, #1
                if (tail)
    cf04:	f1b8 0f00 	cmp.w	r8, #0
    cf08:	d1cb      	bne.n	cea2 <core_bench_list+0x34e>
    cf0a:	4683      	mov	fp, r0
    cf0c:	4680      	mov	r8, r0
    cf0e:	f8cd b01c 	str.w	fp, [sp, #28]
            while (psize > 0 || (qsize > 0 && q))
    cf12:	f1b9 0f00 	cmp.w	r9, #0
    cf16:	dced      	bgt.n	cef4 <core_bench_list+0x3a0>
    cf18:	e7cc      	b.n	ceb4 <core_bench_list+0x360>
    cf1a:	46a3      	mov	fp, r4
    remover = core_list_remove(list->next);
    cf1c:	6828      	ldr	r0, [r5, #0]
    cf1e:	f8db 2000 	ldr.w	r2, [fp]
    cf22:	1c41      	adds	r1, r0, #1
    cf24:	6029      	str	r1, [r5, #0]
    list_head *ret = item->next;
    cf26:	e9d2 4100 	ldrd	r4, r1, [r2]
    item->info = ret->info;
    cf2a:	1c87      	adds	r7, r0, #2
    cf2c:	6863      	ldr	r3, [r4, #4]
    cf2e:	602f      	str	r7, [r5, #0]
    cf30:	6053      	str	r3, [r2, #4]
    item->next = item->next->next;
    cf32:	6813      	ldr	r3, [r2, #0]
    ret->info  = tmp;
    cf34:	6061      	str	r1, [r4, #4]
    item->next = item->next->next;
    cf36:	681b      	ldr	r3, [r3, #0]
    cf38:	3003      	adds	r0, #3
    cf3a:	6028      	str	r0, [r5, #0]
    cf3c:	2000      	movs	r0, #0
    cf3e:	6013      	str	r3, [r2, #0]
    ret->next  = NULL;
    cf40:	6020      	str	r0, [r4, #0]
    if (info->idx >= 0)
    cf42:	9f03      	ldr	r7, [sp, #12]
    finder = core_list_find(list, &info);
    cf44:	682b      	ldr	r3, [r5, #0]
    cf46:	9802      	ldr	r0, [sp, #8]
    cf48:	9a00      	ldr	r2, [sp, #0]
    if (info->idx >= 0)
    cf4a:	b23f      	sxth	r7, r7
    cf4c:	f04f 36ff 	mov.w	r6, #4294967295	; 0xffffffff
    cf50:	4410      	add	r0, r2
    finder = core_list_find(list, &info);
    cf52:	1c5a      	adds	r2, r3, #1
    if (info->idx >= 0)
    cf54:	42b7      	cmp	r7, r6
    finder = core_list_find(list, &info);
    cf56:	602a      	str	r2, [r5, #0]
    cf58:	dd1f      	ble.n	cf9a <core_bench_list+0x446>
        while (list && (list->info->idx != info->idx))
    cf5a:	f1bb 0f00 	cmp.w	fp, #0
    cf5e:	d03d      	beq.n	cfdc <core_bench_list+0x488>
    cf60:	9f03      	ldr	r7, [sp, #12]
    cf62:	465d      	mov	r5, fp
    cf64:	b2bf      	uxth	r7, r7
    cf66:	686e      	ldr	r6, [r5, #4]
    cf68:	8876      	ldrh	r6, [r6, #2]
    cf6a:	42be      	cmp	r6, r7
    cf6c:	d039      	beq.n	cfe2 <core_bench_list+0x48e>
            list = list->next;
    cf6e:	682d      	ldr	r5, [r5, #0]
        while (list && (list->info->idx != info->idx))
    cf70:	b3a5      	cbz	r5, cfdc <core_bench_list+0x488>
    cf72:	686e      	ldr	r6, [r5, #4]
    cf74:	8876      	ldrh	r6, [r6, #2]
    cf76:	42be      	cmp	r6, r7
    cf78:	d033      	beq.n	cfe2 <core_bench_list+0x48e>
            list = list->next;
    cf7a:	682d      	ldr	r5, [r5, #0]
        while (list && (list->info->idx != info->idx))
    cf7c:	b375      	cbz	r5, cfdc <core_bench_list+0x488>
    cf7e:	686e      	ldr	r6, [r5, #4]
    cf80:	8876      	ldrh	r6, [r6, #2]
    cf82:	42be      	cmp	r6, r7
    cf84:	d02d      	beq.n	cfe2 <core_bench_list+0x48e>
            list = list->next;
    cf86:	682d      	ldr	r5, [r5, #0]
        while (list && (list->info->idx != info->idx))
    cf88:	b345      	cbz	r5, cfdc <core_bench_list+0x488>
    cf8a:	686e      	ldr	r6, [r5, #4]
    cf8c:	8876      	ldrh	r6, [r6, #2]
    cf8e:	42be      	cmp	r6, r7
    cf90:	d027      	beq.n	cfe2 <core_bench_list+0x48e>
            list = list->next;
    cf92:	682d      	ldr	r5, [r5, #0]
        while (list && (list->info->idx != info->idx))
    cf94:	2d00      	cmp	r5, #0
    cf96:	d1e6      	bne.n	cf66 <core_bench_list+0x412>
    cf98:	e020      	b.n	cfdc <core_bench_list+0x488>
        while (list && ((list->info->data16 & 0xff) != info->data16))
    cf9a:	f1bb 0f00 	cmp.w	fp, #0
    cf9e:	d01d      	beq.n	cfdc <core_bench_list+0x488>
    cfa0:	465d      	mov	r5, fp
    cfa2:	686f      	ldr	r7, [r5, #4]
    cfa4:	9e01      	ldr	r6, [sp, #4]
    cfa6:	783f      	ldrb	r7, [r7, #0]
    cfa8:	42be      	cmp	r6, r7
    cfaa:	d01a      	beq.n	cfe2 <core_bench_list+0x48e>
            list = list->next;
    cfac:	682d      	ldr	r5, [r5, #0]
    cfae:	b1ad      	cbz	r5, cfdc <core_bench_list+0x488>
        while (list && ((list->info->data16 & 0xff) != info->data16))
    cfb0:	686f      	ldr	r7, [r5, #4]
    cfb2:	9e01      	ldr	r6, [sp, #4]
    cfb4:	783f      	ldrb	r7, [r7, #0]
    cfb6:	42be      	cmp	r6, r7
    cfb8:	d013      	beq.n	cfe2 <core_bench_list+0x48e>
            list = list->next;
    cfba:	682d      	ldr	r5, [r5, #0]
    cfbc:	b175      	cbz	r5, cfdc <core_bench_list+0x488>
        while (list && ((list->info->data16 & 0xff) != info->data16))
    cfbe:	686f      	ldr	r7, [r5, #4]
    cfc0:	9e01      	ldr	r6, [sp, #4]
    cfc2:	783f      	ldrb	r7, [r7, #0]
    cfc4:	42be      	cmp	r6, r7
    cfc6:	d00c      	beq.n	cfe2 <core_bench_list+0x48e>
            list = list->next;
    cfc8:	682d      	ldr	r5, [r5, #0]
    cfca:	b13d      	cbz	r5, cfdc <core_bench_list+0x488>
        while (list && ((list->info->data16 & 0xff) != info->data16))
    cfcc:	686f      	ldr	r7, [r5, #4]
    cfce:	9e01      	ldr	r6, [sp, #4]
    cfd0:	783f      	ldrb	r7, [r7, #0]
    cfd2:	42be      	cmp	r6, r7
    cfd4:	d005      	beq.n	cfe2 <core_bench_list+0x48e>
            list = list->next;
    cfd6:	682d      	ldr	r5, [r5, #0]
        while (list && ((list->info->data16 & 0xff) != info->data16))
    cfd8:	2d00      	cmp	r5, #0
    cfda:	d1e2      	bne.n	cfa2 <core_bench_list+0x44e>
        finder = list->next;
    cfdc:	f8db 5000 	ldr.w	r5, [fp]
    while (finder)
    cfe0:	b33d      	cbz	r5, d032 <core_bench_list+0x4de>
        retval = crc16(list->info->data16, retval);
    cfe2:	f8db 1004 	ldr.w	r1, [fp, #4]
    cfe6:	f240 0730 	movw	r7, #48	; 0x30
    cfea:	880a      	ldrh	r2, [r1, #0]
    cfec:	1c99      	adds	r1, r3, #2
    cfee:	f2c1 0700 	movt	r7, #4096	; 0x1000
    cff2:	6039      	str	r1, [r7, #0]
    cff4:	1cd9      	adds	r1, r3, #3
    cff6:	6039      	str	r1, [r7, #0]
    cff8:	b281      	uxth	r1, r0
    cffa:	4610      	mov	r0, r2
    cffc:	f002 faa1 	bl	f542 <crcu16>
        finder = finder->next;
    d000:	682d      	ldr	r5, [r5, #0]
    d002:	f240 0630 	movw	r6, #48	; 0x30
    d006:	f2c1 0600 	movt	r6, #4096	; 0x1000
    while (finder)
    d00a:	b175      	cbz	r5, d02a <core_bench_list+0x4d6>
        retval = crc16(list->info->data16, retval);
    d00c:	f8db 1004 	ldr.w	r1, [fp, #4]
    d010:	6833      	ldr	r3, [r6, #0]
    d012:	880a      	ldrh	r2, [r1, #0]
    d014:	1c59      	adds	r1, r3, #1
    d016:	6031      	str	r1, [r6, #0]
    d018:	1c99      	adds	r1, r3, #2
    d01a:	6031      	str	r1, [r6, #0]
    d01c:	b281      	uxth	r1, r0
    d01e:	4610      	mov	r0, r2
    d020:	f002 fa8f 	bl	f542 <crcu16>
        finder = finder->next;
    d024:	682d      	ldr	r5, [r5, #0]
    while (finder)
    d026:	2d00      	cmp	r5, #0
    d028:	d1f0      	bne.n	d00c <core_bench_list+0x4b8>
    remover = core_list_undo_remove(remover, list->next);
    d02a:	6832      	ldr	r2, [r6, #0]
    tmp                 = item_removed->info;
    d02c:	6861      	ldr	r1, [r4, #4]
    d02e:	4635      	mov	r5, r6
    d030:	e003      	b.n	d03a <core_bench_list+0x4e6>
    d032:	f240 0530 	movw	r5, #48	; 0x30
    d036:	f2c1 0500 	movt	r5, #4096	; 0x1000
    remover = core_list_undo_remove(remover, list->next);
    d03a:	f8db 3000 	ldr.w	r3, [fp]
    d03e:	1c57      	adds	r7, r2, #1
    d040:	602f      	str	r7, [r5, #0]
    item_removed->info  = item_modified->info;
    d042:	3202      	adds	r2, #2
    d044:	685f      	ldr	r7, [r3, #4]
    d046:	602a      	str	r2, [r5, #0]
    item_removed->next  = item_modified->next;
    d048:	681a      	ldr	r2, [r3, #0]
    d04a:	f04f 0901 	mov.w	r9, #1
    d04e:	e9c4 2700 	strd	r2, r7, [r4]
    item_modified->next = item_removed;
    d052:	682a      	ldr	r2, [r5, #0]
    item_modified->info = tmp;
    d054:	6059      	str	r1, [r3, #4]
    item_modified->next = item_removed;
    d056:	1c51      	adds	r1, r2, #1
    d058:	6029      	str	r1, [r5, #0]
    d05a:	601c      	str	r4, [r3, #0]
    list = core_list_mergesort(list, cmp_idx, NULL);
    d05c:	6829      	ldr	r1, [r5, #0]
    d05e:	3101      	adds	r1, #1
    d060:	6029      	str	r1, [r5, #0]
        while (p)
    d062:	f1bb 0f00 	cmp.w	fp, #0
    d066:	d113      	bne.n	d090 <core_bench_list+0x53c>
    d068:	f04f 0e00 	mov.w	lr, #0
        tail = NULL;
    d06c:	2400      	movs	r4, #0
        list = NULL;
    d06e:	f04f 0800 	mov.w	r8, #0
        tail->next = NULL;
    d072:	6829      	ldr	r1, [r5, #0]
        insize *= 2;
    d074:	ea4f 0949 	mov.w	r9, r9, lsl #1
        tail->next = NULL;
    d078:	3101      	adds	r1, #1
    d07a:	6029      	str	r1, [r5, #0]
    d07c:	2100      	movs	r1, #0
        if (nmerges <= 1) /* allow for nmerges==0, the empty list case */
    d07e:	f1be 0f01 	cmp.w	lr, #1
    d082:	46c3      	mov	fp, r8
        tail->next = NULL;
    d084:	6021      	str	r1, [r4, #0]
    d086:	f240 80c2 	bls.w	d20e <core_bench_list+0x6ba>
        while (p)
    d08a:	f1bb 0f00 	cmp.w	fp, #0
    d08e:	d0eb      	beq.n	d068 <core_bench_list+0x514>
    d090:	f04f 0800 	mov.w	r8, #0
    d094:	2400      	movs	r4, #0
    d096:	f04f 0e00 	mov.w	lr, #0
    d09a:	e002      	b.n	d0a2 <core_bench_list+0x54e>
    d09c:	f1bb 0f00 	cmp.w	fp, #0
    d0a0:	d0e7      	beq.n	d072 <core_bench_list+0x51e>
    d0a2:	4622      	mov	r2, r4
    d0a4:	46da      	mov	sl, fp
            nmerges++; /* there exists a merge to be done */
    d0a6:	f10e 0e01 	add.w	lr, lr, #1
    d0aa:	2400      	movs	r4, #0
    d0ac:	2603      	movs	r6, #3
            for (i = 0; i < insize; i++)
    d0ae:	1ef7      	subs	r7, r6, #3
    d0b0:	454f      	cmp	r7, r9
    d0b2:	da28      	bge.n	d106 <core_bench_list+0x5b2>
                q = q->next;
    d0b4:	f8db b000 	ldr.w	fp, [fp]
    d0b8:	1eb7      	subs	r7, r6, #2
                if (!q)
    d0ba:	f1bb 0f00 	cmp.w	fp, #0
    d0be:	d020      	beq.n	d102 <core_bench_list+0x5ae>
            for (i = 0; i < insize; i++)
    d0c0:	454f      	cmp	r7, r9
    d0c2:	da26      	bge.n	d112 <core_bench_list+0x5be>
                q = q->next;
    d0c4:	f8db b000 	ldr.w	fp, [fp]
                if (!q)
    d0c8:	f1bb 0f00 	cmp.w	fp, #0
    d0cc:	d028      	beq.n	d120 <core_bench_list+0x5cc>
    d0ce:	1e77      	subs	r7, r6, #1
            for (i = 0; i < insize; i++)
    d0d0:	454f      	cmp	r7, r9
    d0d2:	da18      	bge.n	d106 <core_bench_list+0x5b2>
                q = q->next;
    d0d4:	f8db b000 	ldr.w	fp, [fp]
                if (!q)
    d0d8:	f1bb 0f00 	cmp.w	fp, #0
    d0dc:	d029      	beq.n	d132 <core_bench_list+0x5de>
            for (i = 0; i < insize; i++)
    d0de:	454e      	cmp	r6, r9
    d0e0:	da2e      	bge.n	d140 <core_bench_list+0x5ec>
                q = q->next;
    d0e2:	f8db b000 	ldr.w	fp, [fp]
                psize++;
    d0e6:	3404      	adds	r4, #4
                if (!q)
    d0e8:	f1bb 0f00 	cmp.w	fp, #0
    d0ec:	f106 0604 	add.w	r6, r6, #4
    d0f0:	d1dd      	bne.n	d0ae <core_bench_list+0x55a>
    d0f2:	3e03      	subs	r6, #3
    d0f4:	f04f 0b00 	mov.w	fp, #0
    d0f8:	464f      	mov	r7, r9
    d0fa:	4614      	mov	r4, r2
            while (psize > 0 || (qsize > 0 && q))
    d0fc:	2e00      	cmp	r6, #0
    d0fe:	dc3d      	bgt.n	d17c <core_bench_list+0x628>
    d100:	e07e      	b.n	d200 <core_bench_list+0x6ac>
    d102:	f04f 0b00 	mov.w	fp, #0
    d106:	463e      	mov	r6, r7
    d108:	464f      	mov	r7, r9
    d10a:	4614      	mov	r4, r2
    d10c:	2e00      	cmp	r6, #0
    d10e:	dc35      	bgt.n	d17c <core_bench_list+0x628>
    d110:	e076      	b.n	d200 <core_bench_list+0x6ac>
    d112:	f044 0601 	orr.w	r6, r4, #1
    d116:	464f      	mov	r7, r9
    d118:	4614      	mov	r4, r2
    d11a:	2e00      	cmp	r6, #0
    d11c:	dc2e      	bgt.n	d17c <core_bench_list+0x628>
    d11e:	e06f      	b.n	d200 <core_bench_list+0x6ac>
    d120:	f044 0602 	orr.w	r6, r4, #2
    d124:	f04f 0b00 	mov.w	fp, #0
    d128:	464f      	mov	r7, r9
    d12a:	4614      	mov	r4, r2
    d12c:	2e00      	cmp	r6, #0
    d12e:	dc25      	bgt.n	d17c <core_bench_list+0x628>
    d130:	e066      	b.n	d200 <core_bench_list+0x6ac>
    d132:	f04f 0b00 	mov.w	fp, #0
    d136:	464f      	mov	r7, r9
    d138:	4614      	mov	r4, r2
    d13a:	2e00      	cmp	r6, #0
    d13c:	dc1e      	bgt.n	d17c <core_bench_list+0x628>
    d13e:	e05f      	b.n	d200 <core_bench_list+0x6ac>
    d140:	f044 0603 	orr.w	r6, r4, #3
    d144:	464f      	mov	r7, r9
    d146:	4614      	mov	r4, r2
    d148:	2e00      	cmp	r6, #0
    d14a:	dc17      	bgt.n	d17c <core_bench_list+0x628>
    d14c:	e058      	b.n	d200 <core_bench_list+0x6ac>
    d14e:	bf00      	nop
                if (psize == 0)
    d150:	b9a6      	cbnz	r6, d17c <core_bench_list+0x628>
    d152:	465a      	mov	r2, fp
                    q = q->next;
    d154:	f8db b000 	ldr.w	fp, [fp]
                    qsize--;
    d158:	3f01      	subs	r7, #1
    d15a:	2600      	movs	r6, #0
                if (tail)
    d15c:	b93c      	cbnz	r4, d16e <core_bench_list+0x61a>
    d15e:	e04b      	b.n	d1f8 <core_bench_list+0x6a4>
                    p = p->next;
    d160:	f8da 3000 	ldr.w	r3, [sl]
    d164:	4652      	mov	r2, sl
                    psize--;
    d166:	3e01      	subs	r6, #1
    d168:	469a      	mov	sl, r3
                if (tail)
    d16a:	2c00      	cmp	r4, #0
    d16c:	d044      	beq.n	d1f8 <core_bench_list+0x6a4>
                    tail->next = e;
    d16e:	6829      	ldr	r1, [r5, #0]
    d170:	3101      	adds	r1, #1
    d172:	6029      	str	r1, [r5, #0]
    d174:	6022      	str	r2, [r4, #0]
    d176:	4614      	mov	r4, r2
            while (psize > 0 || (qsize > 0 && q))
    d178:	2e00      	cmp	r6, #0
    d17a:	dd41      	ble.n	d200 <core_bench_list+0x6ac>
                else if (qsize == 0 || !q)
    d17c:	f1bb 0f00 	cmp.w	fp, #0
    d180:	bf18      	it	ne
    d182:	2f00      	cmpne	r7, #0
    d184:	d0ec      	beq.n	d160 <core_bench_list+0x60c>
    d186:	46ac      	mov	ip, r5
                else if (cmp(p->info, q->info, res) <= 0)
    d188:	682d      	ldr	r5, [r5, #0]
    d18a:	f8da 2004 	ldr.w	r2, [sl, #4]
    d18e:	1c6b      	adds	r3, r5, #1
    d190:	f8db 1004 	ldr.w	r1, [fp, #4]
    d194:	f8cc 3000 	str.w	r3, [ip]
        a->data16 = (a->data16 & 0xff00) | (0x00ff & (a->data16 >> 8));
    d198:	f9b2 3000 	ldrsh.w	r3, [r2]
    d19c:	3502      	adds	r5, #2
    d19e:	0a1b      	lsrs	r3, r3, #8
    d1a0:	f363 231f 	bfi	r3, r3, #8, #24
    d1a4:	f8cc 5000 	str.w	r5, [ip]
    d1a8:	8013      	strh	r3, [r2, #0]
        b->data16 = (b->data16 & 0xff00) | (0x00ff & (b->data16 >> 8));
    d1aa:	f8dc 3000 	ldr.w	r3, [ip]
    d1ae:	f9b1 5000 	ldrsh.w	r5, [r1]
    d1b2:	3301      	adds	r3, #1
    d1b4:	f8cc 3000 	str.w	r3, [ip]
    return a->idx - b->idx;
    d1b8:	f9b2 2002 	ldrsh.w	r2, [r2, #2]
    d1bc:	f9b1 3002 	ldrsh.w	r3, [r1, #2]
                else if (cmp(p->info, q->info, res) <= 0)
    d1c0:	429a      	cmp	r2, r3
        b->data16 = (b->data16 & 0xff00) | (0x00ff & (b->data16 >> 8));
    d1c2:	ea4f 2215 	mov.w	r2, r5, lsr #8
    d1c6:	f362 221f 	bfi	r2, r2, #8, #24
    d1ca:	800a      	strh	r2, [r1, #0]
                else if (cmp(p->info, q->info, res) <= 0)
    d1cc:	dd0a      	ble.n	d1e4 <core_bench_list+0x690>
    d1ce:	465a      	mov	r2, fp
                    q = q->next;
    d1d0:	f8db b000 	ldr.w	fp, [fp]
                    qsize--;
    d1d4:	3f01      	subs	r7, #1
    d1d6:	f240 0530 	movw	r5, #48	; 0x30
    d1da:	f2c1 0500 	movt	r5, #4096	; 0x1000
                if (tail)
    d1de:	2c00      	cmp	r4, #0
    d1e0:	d1c5      	bne.n	d16e <core_bench_list+0x61a>
    d1e2:	e009      	b.n	d1f8 <core_bench_list+0x6a4>
    d1e4:	4652      	mov	r2, sl
                    p = p->next;
    d1e6:	f8da a000 	ldr.w	sl, [sl]
                    psize--;
    d1ea:	3e01      	subs	r6, #1
    d1ec:	f240 0530 	movw	r5, #48	; 0x30
    d1f0:	f2c1 0500 	movt	r5, #4096	; 0x1000
                if (tail)
    d1f4:	2c00      	cmp	r4, #0
    d1f6:	d1ba      	bne.n	d16e <core_bench_list+0x61a>
    d1f8:	4690      	mov	r8, r2
    d1fa:	4614      	mov	r4, r2
            while (psize > 0 || (qsize > 0 && q))
    d1fc:	2e00      	cmp	r6, #0
    d1fe:	dcbd      	bgt.n	d17c <core_bench_list+0x628>
    d200:	f1bb 0f00 	cmp.w	fp, #0
    d204:	f43f af4a 	beq.w	d09c <core_bench_list+0x548>
    d208:	2f01      	cmp	r7, #1
    d20a:	daa1      	bge.n	d150 <core_bench_list+0x5fc>
    d20c:	e746      	b.n	d09c <core_bench_list+0x548>
    d20e:	f8d8 4000 	ldr.w	r4, [r8]
    d212:	b174      	cbz	r4, d232 <core_bench_list+0x6de>
        retval = crc16(list->info->data16, retval);
    d214:	f8d8 1004 	ldr.w	r1, [r8, #4]
    d218:	682b      	ldr	r3, [r5, #0]
    d21a:	880a      	ldrh	r2, [r1, #0]
    d21c:	1c59      	adds	r1, r3, #1
    d21e:	6029      	str	r1, [r5, #0]
    d220:	1c99      	adds	r1, r3, #2
    d222:	6029      	str	r1, [r5, #0]
    d224:	b281      	uxth	r1, r0
    d226:	4610      	mov	r0, r2
    d228:	f002 f98b 	bl	f542 <crcu16>
    d22c:	6824      	ldr	r4, [r4, #0]
    while (finder)
    d22e:	2c00      	cmp	r4, #0
    d230:	d1f0      	bne.n	d214 <core_bench_list+0x6c0>
    return retval;
    d232:	b280      	uxth	r0, r0
    d234:	b009      	add	sp, #36	; 0x24
    d236:	e8bd 8ff0 	ldmia.w	sp!, {r4, r5, r6, r7, r8, r9, sl, fp, pc}
    d23a:	d4d4      	bmi.n	d1e6 <core_bench_list+0x692>

0000d23c <core_list_init>:
{
    d23c:	e92d 4ff0 	stmdb	sp!, {r4, r5, r6, r7, r8, r9, sl, fp, lr}
    d240:	f64c 43cd 	movw	r3, #52429	; 0xcccd
    d244:	f6cc 43cc 	movt	r3, #52428	; 0xcccc
    ee_u32 size     = (blksize / per_item)
    d248:	fba0 0303 	umull	r0, r3, r0, r3
    d24c:	f06f 0001 	mvn.w	r0, #1
                  - 2; /* to accomodate systems with 64b pointers, and make sure
    d250:	eb00 1a13 	add.w	sl, r0, r3, lsr #4
    list_head *memblock_end  = memblock + size;
    d254:	eb01 08ca 	add.w	r8, r1, sl, lsl #3
    d258:	2000      	movs	r0, #0
    list->next         = NULL;
    d25a:	e9c1 0800 	strd	r0, r8, [r1]
    list->info->idx    = 0x0000;
    d25e:	f8a8 0002 	strh.w	r0, [r8, #2]
    d262:	f248 0080 	movw	r0, #32896	; 0x8080
    memblock++;
    d266:	f240 0930 	movw	r9, #48	; 0x30
    list->info->data16 = (ee_s16)0x8080;
    d26a:	f821 003a 	strh.w	r0, [r1, sl, lsl #3]
    memblock++;
    d26e:	f2c1 0900 	movt	r9, #4096	; 0x1000
    d272:	f8d9 5000 	ldr.w	r5, [r9]
    list_data *datablock_end = datablock + size;
    d276:	eb08 038a 	add.w	r3, r8, sl, lsl #2
    memblock++;
    d27a:	1c6c      	adds	r4, r5, #1
    d27c:	f8c9 4000 	str.w	r4, [r9]
    datablock++;
    d280:	1cac      	adds	r4, r5, #2
    memblock++;
    d282:	f101 0e08 	add.w	lr, r1, #8
    datablock++;
    d286:	f108 0b04 	add.w	fp, r8, #4
    d28a:	f8c9 4000 	str.w	r4, [r9]
    core_list_insert_new(
    d28e:	1cec      	adds	r4, r5, #3
    if ((*memblock + 1) >= memblock_end)
    d290:	f1ba 0f03 	cmp.w	sl, #3
    core_list_insert_new(
    d294:	f8c9 4000 	str.w	r4, [r9]
    if ((*memblock + 1) >= memblock_end)
    d298:	db23      	blt.n	d2e2 <core_list_init+0xa6>
    if ((*datablock + 1) >= datablock_end)
    d29a:	f10b 0404 	add.w	r4, fp, #4
    d29e:	42a3      	cmp	r3, r4
    d2a0:	d922      	bls.n	d2e8 <core_list_init+0xac>
    (*memblock)++;
    d2a2:	1d2e      	adds	r6, r5, #4
    d2a4:	f8c9 6000 	str.w	r6, [r9]
    newitem->next      = insert_point->next;
    d2a8:	680e      	ldr	r6, [r1, #0]
    d2aa:	3505      	adds	r5, #5
    d2ac:	f8c9 5000 	str.w	r5, [r9]
    insert_point->next = newitem;
    d2b0:	f8c1 e000 	str.w	lr, [r1]
    newitem->next      = insert_point->next;
    d2b4:	608e      	str	r6, [r1, #8]
    (*datablock)++;
    d2b6:	f8d9 5000 	ldr.w	r5, [r9]
    newitem->info = *datablock;
    d2ba:	f8c1 b00c 	str.w	fp, [r1, #12]
    (*datablock)++;
    d2be:	1c6e      	adds	r6, r5, #1
    copy_info(newitem->info, info);
    d2c0:	3502      	adds	r5, #2
    (*datablock)++;
    d2c2:	f8c9 6000 	str.w	r6, [r9]
    copy_info(newitem->info, info);
    d2c6:	f8c9 5000 	str.w	r5, [r9]
    d2ca:	f64f 75ff 	movw	r5, #65535	; 0xffff
    to->data16 = from->data16;
    d2ce:	f8ab 5000 	strh.w	r5, [fp]
    d2d2:	f647 75ff 	movw	r5, #32767	; 0x7fff
    d2d6:	f101 0e10 	add.w	lr, r1, #16
    to->idx    = from->idx;
    d2da:	f8ab 5002 	strh.w	r5, [fp, #2]
    d2de:	46a3      	mov	fp, r4
    d2e0:	e002      	b.n	d2e8 <core_list_init+0xac>
    for (i = 0; i < size; i++)
    d2e2:	f1ba 0f00 	cmp.w	sl, #0
    d2e6:	d039      	beq.n	d35c <core_list_init+0x120>
    d2e8:	2500      	movs	r5, #0
    d2ea:	e002      	b.n	d2f2 <core_list_init+0xb6>
    d2ec:	3501      	adds	r5, #1
    d2ee:	4555      	cmp	r5, sl
    d2f0:	d234      	bcs.n	d35c <core_list_init+0x120>
        core_list_insert_new(
    d2f2:	f8d9 7000 	ldr.w	r7, [r9]
    if ((*memblock + 1) >= memblock_end)
    d2f6:	f10e 0608 	add.w	r6, lr, #8
        core_list_insert_new(
    d2fa:	1c7c      	adds	r4, r7, #1
    if ((*memblock + 1) >= memblock_end)
    d2fc:	4546      	cmp	r6, r8
        core_list_insert_new(
    d2fe:	f8c9 4000 	str.w	r4, [r9]
    d302:	d2f3      	bcs.n	d2ec <core_list_init+0xb0>
    if ((*datablock + 1) >= datablock_end)
    d304:	f10b 0404 	add.w	r4, fp, #4
    d308:	429c      	cmp	r4, r3
    d30a:	d2ef      	bcs.n	d2ec <core_list_init+0xb0>
    d30c:	ea85 0c02 	eor.w	ip, r5, r2
    d310:	4640      	mov	r0, r8
    d312:	f005 0807 	and.w	r8, r5, #7
    d316:	f36c 08c6 	bfi	r8, ip, #3, #4
    d31a:	ea48 2c08 	orr.w	ip, r8, r8, lsl #8
    d31e:	4680      	mov	r8, r0
    (*memblock)++;
    d320:	1cb8      	adds	r0, r7, #2
    d322:	f8c9 0000 	str.w	r0, [r9]
    newitem->next      = insert_point->next;
    d326:	6808      	ldr	r0, [r1, #0]
    d328:	3703      	adds	r7, #3
    d32a:	f8c9 7000 	str.w	r7, [r9]
    d32e:	f8ce 0000 	str.w	r0, [lr]
    insert_point->next = newitem;
    d332:	f8c1 e000 	str.w	lr, [r1]
    (*datablock)++;
    d336:	f8d9 0000 	ldr.w	r0, [r9]
    newitem->info = *datablock;
    d33a:	f8ce b004 	str.w	fp, [lr, #4]
    (*datablock)++;
    d33e:	1c47      	adds	r7, r0, #1
    copy_info(newitem->info, info);
    d340:	3002      	adds	r0, #2
    (*datablock)++;
    d342:	f8c9 7000 	str.w	r7, [r9]
    copy_info(newitem->info, info);
    d346:	f8c9 0000 	str.w	r0, [r9]
    to->idx    = from->idx;
    d34a:	f647 70ff 	movw	r0, #32767	; 0x7fff
    to->data16 = from->data16;
    d34e:	f8ab c000 	strh.w	ip, [fp]
    to->idx    = from->idx;
    d352:	f8ab 0002 	strh.w	r0, [fp, #2]
    d356:	46a3      	mov	fp, r4
    d358:	46b6      	mov	lr, r6
    d35a:	e7c7      	b.n	d2ec <core_list_init+0xb0>
    d35c:	680f      	ldr	r7, [r1, #0]
    while (finder->next != NULL)
    d35e:	683d      	ldr	r5, [r7, #0]
    d360:	b315      	cbz	r5, d3a8 <core_list_init+0x16c>
    d362:	f64c 40cd 	movw	r0, #52429	; 0xcccd
    d366:	f6cc 40cc 	movt	r0, #52428	; 0xcccc
    d36a:	fbaa 0600 	umull	r0, r6, sl, r0
    d36e:	ea4f 0c96 	mov.w	ip, r6, lsr #2
    d372:	2601      	movs	r6, #1
    d374:	462c      	mov	r4, r5
        if (i < size / 5) /* first 20% of the list in order */
    d376:	4566      	cmp	r6, ip
    d378:	f106 0001 	add.w	r0, r6, #1
    d37c:	d20b      	bcs.n	d396 <core_list_init+0x15a>
    d37e:	bf00      	nop
    d380:	687b      	ldr	r3, [r7, #4]
    while (finder->next != NULL)
    d382:	6825      	ldr	r5, [r4, #0]
    d384:	805e      	strh	r6, [r3, #2]
    d386:	4627      	mov	r7, r4
    d388:	4606      	mov	r6, r0
    d38a:	b16d      	cbz	r5, d3a8 <core_list_init+0x16c>
    d38c:	462c      	mov	r4, r5
        if (i < size / 5) /* first 20% of the list in order */
    d38e:	4566      	cmp	r6, ip
    d390:	f106 0001 	add.w	r0, r6, #1
    d394:	d3f4      	bcc.n	d380 <core_list_init+0x144>
            ee_u16 pat = (ee_u16)(i++ ^ seed); /* get a pseudo random number */
    d396:	ea86 0302 	eor.w	r3, r6, r2
                                & (((i & 0x07) << 8)
    d39a:	f36f 339f 	bfc	r3, #14, #18
            finder->info->idx = 0x3fff
    d39e:	f000 0607 	and.w	r6, r0, #7
    d3a2:	ea43 2606 	orr.w	r6, r3, r6, lsl #8
    d3a6:	e7eb      	b.n	d380 <core_list_init+0x144>
    list = core_list_mergesort(list, cmp_idx, NULL);
    d3a8:	f8d9 0000 	ldr.w	r0, [r9]
    d3ac:	f04f 0801 	mov.w	r8, #1
    d3b0:	3001      	adds	r0, #1
    d3b2:	f04f 0c00 	mov.w	ip, #0
    d3b6:	f8c9 0000 	str.w	r0, [r9]
        while (p)
    d3ba:	b9a1      	cbnz	r1, d3e6 <core_list_init+0x1aa>
    d3bc:	f04f 0e00 	mov.w	lr, #0
        tail = NULL;
    d3c0:	2700      	movs	r7, #0
        list = NULL;
    d3c2:	2000      	movs	r0, #0
        tail->next = NULL;
    d3c4:	f8d9 1000 	ldr.w	r1, [r9]
        insize *= 2;
    d3c8:	ea4f 0848 	mov.w	r8, r8, lsl #1
        tail->next = NULL;
    d3cc:	3101      	adds	r1, #1
        if (nmerges <= 1) /* allow for nmerges==0, the empty list case */
    d3ce:	f1be 0f01 	cmp.w	lr, #1
        tail->next = NULL;
    d3d2:	f8c9 1000 	str.w	r1, [r9]
    d3d6:	f8c7 c000 	str.w	ip, [r7]
    d3da:	4601      	mov	r1, r0
    return list;
    d3dc:	bf98      	it	ls
    d3de:	e8bd 8ff0 	ldmials.w	sp!, {r4, r5, r6, r7, r8, r9, sl, fp, pc}
        while (p)
    d3e2:	2900      	cmp	r1, #0
    d3e4:	d0ea      	beq.n	d3bc <core_list_init+0x180>
    d3e6:	2000      	movs	r0, #0
    d3e8:	2700      	movs	r7, #0
    d3ea:	f04f 0e00 	mov.w	lr, #0
    d3ee:	e001      	b.n	d3f4 <core_list_init+0x1b8>
    d3f0:	2900      	cmp	r1, #0
    d3f2:	d0e7      	beq.n	d3c4 <core_list_init+0x188>
    d3f4:	463e      	mov	r6, r7
    d3f6:	468a      	mov	sl, r1
            nmerges++; /* there exists a merge to be done */
    d3f8:	f10e 0e01 	add.w	lr, lr, #1
    d3fc:	2200      	movs	r2, #0
    d3fe:	2503      	movs	r5, #3
            for (i = 0; i < insize; i++)
    d400:	1eef      	subs	r7, r5, #3
    d402:	4547      	cmp	r7, r8
    d404:	da1b      	bge.n	d43e <core_list_init+0x202>
                q = q->next;
    d406:	6809      	ldr	r1, [r1, #0]
    d408:	1eaf      	subs	r7, r5, #2
                if (!q)
    d40a:	b1b9      	cbz	r1, d43c <core_list_init+0x200>
            for (i = 0; i < insize; i++)
    d40c:	4547      	cmp	r7, r8
    d40e:	da1c      	bge.n	d44a <core_list_init+0x20e>
                q = q->next;
    d410:	6809      	ldr	r1, [r1, #0]
                if (!q)
    d412:	b309      	cbz	r1, d458 <core_list_init+0x21c>
    d414:	1e6f      	subs	r7, r5, #1
            for (i = 0; i < insize; i++)
    d416:	4547      	cmp	r7, r8
    d418:	da11      	bge.n	d43e <core_list_init+0x202>
                q = q->next;
    d41a:	6809      	ldr	r1, [r1, #0]
                if (!q)
    d41c:	b321      	cbz	r1, d468 <core_list_init+0x22c>
            for (i = 0; i < insize; i++)
    d41e:	4545      	cmp	r5, r8
    d420:	da28      	bge.n	d474 <core_list_init+0x238>
                q = q->next;
    d422:	6809      	ldr	r1, [r1, #0]
                psize++;
    d424:	3204      	adds	r2, #4
                if (!q)
    d426:	2900      	cmp	r1, #0
    d428:	f105 0504 	add.w	r5, r5, #4
    d42c:	d1e8      	bne.n	d400 <core_list_init+0x1c4>
    d42e:	3d03      	subs	r5, #3
    d430:	2100      	movs	r1, #0
    d432:	46c3      	mov	fp, r8
    d434:	4637      	mov	r7, r6
            while (psize > 0 || (qsize > 0 && q))
    d436:	2d00      	cmp	r5, #0
    d438:	dc39      	bgt.n	d4ae <core_list_init+0x272>
    d43a:	e032      	b.n	d4a2 <core_list_init+0x266>
    d43c:	2100      	movs	r1, #0
    d43e:	463d      	mov	r5, r7
    d440:	46c3      	mov	fp, r8
    d442:	4637      	mov	r7, r6
    d444:	2d00      	cmp	r5, #0
    d446:	dc32      	bgt.n	d4ae <core_list_init+0x272>
    d448:	e02b      	b.n	d4a2 <core_list_init+0x266>
    d44a:	f042 0501 	orr.w	r5, r2, #1
    d44e:	46c3      	mov	fp, r8
    d450:	4637      	mov	r7, r6
    d452:	2d00      	cmp	r5, #0
    d454:	dc2b      	bgt.n	d4ae <core_list_init+0x272>
    d456:	e024      	b.n	d4a2 <core_list_init+0x266>
    d458:	f042 0502 	orr.w	r5, r2, #2
    d45c:	2100      	movs	r1, #0
    d45e:	46c3      	mov	fp, r8
    d460:	4637      	mov	r7, r6
    d462:	2d00      	cmp	r5, #0
    d464:	dc23      	bgt.n	d4ae <core_list_init+0x272>
    d466:	e01c      	b.n	d4a2 <core_list_init+0x266>
    d468:	2100      	movs	r1, #0
    d46a:	46c3      	mov	fp, r8
    d46c:	4637      	mov	r7, r6
    d46e:	2d00      	cmp	r5, #0
    d470:	dc1d      	bgt.n	d4ae <core_list_init+0x272>
    d472:	e016      	b.n	d4a2 <core_list_init+0x266>
    d474:	f042 0503 	orr.w	r5, r2, #3
    d478:	46c3      	mov	fp, r8
    d47a:	4637      	mov	r7, r6
    d47c:	2d00      	cmp	r5, #0
    d47e:	dc16      	bgt.n	d4ae <core_list_init+0x272>
    d480:	e00f      	b.n	d4a2 <core_list_init+0x266>
    d482:	bf00      	nop
                    p = p->next;
    d484:	f8da 4000 	ldr.w	r4, [sl]
    d488:	4656      	mov	r6, sl
                    psize--;
    d48a:	3d01      	subs	r5, #1
    d48c:	46a2      	mov	sl, r4
                if (tail)
    d48e:	b3e7      	cbz	r7, d50a <core_list_init+0x2ce>
                    tail->next = e;
    d490:	f8d9 2000 	ldr.w	r2, [r9]
    d494:	3201      	adds	r2, #1
    d496:	f8c9 2000 	str.w	r2, [r9]
    d49a:	603e      	str	r6, [r7, #0]
    d49c:	4637      	mov	r7, r6
            while (psize > 0 || (qsize > 0 && q))
    d49e:	2d00      	cmp	r5, #0
    d4a0:	dc05      	bgt.n	d4ae <core_list_init+0x272>
    d4a2:	2900      	cmp	r1, #0
    d4a4:	d0a4      	beq.n	d3f0 <core_list_init+0x1b4>
    d4a6:	f1bb 0f01 	cmp.w	fp, #1
    d4aa:	dba1      	blt.n	d3f0 <core_list_init+0x1b4>
                if (psize == 0)
    d4ac:	b3d5      	cbz	r5, d524 <core_list_init+0x2e8>
                else if (qsize == 0 || !q)
    d4ae:	2900      	cmp	r1, #0
    d4b0:	bf18      	it	ne
    d4b2:	f1bb 0f00 	cmpne.w	fp, #0
    d4b6:	d0e5      	beq.n	d484 <core_list_init+0x248>
                else if (cmp(p->info, q->info, res) <= 0)
    d4b8:	f8d9 3000 	ldr.w	r3, [r9]
    d4bc:	f8da 6004 	ldr.w	r6, [sl, #4]
    d4c0:	1c5a      	adds	r2, r3, #1
    d4c2:	684c      	ldr	r4, [r1, #4]
    d4c4:	f8c9 2000 	str.w	r2, [r9]
        a->data16 = (a->data16 & 0xff00) | (0x00ff & (a->data16 >> 8));
    d4c8:	f9b6 2000 	ldrsh.w	r2, [r6]
    d4cc:	3302      	adds	r3, #2
    d4ce:	0a12      	lsrs	r2, r2, #8
    d4d0:	f362 221f 	bfi	r2, r2, #8, #24
    d4d4:	f8c9 3000 	str.w	r3, [r9]
    d4d8:	8032      	strh	r2, [r6, #0]
        b->data16 = (b->data16 & 0xff00) | (0x00ff & (b->data16 >> 8));
    d4da:	f8d9 2000 	ldr.w	r2, [r9]
    d4de:	f9b4 3000 	ldrsh.w	r3, [r4]
    d4e2:	3201      	adds	r2, #1
    d4e4:	f8c9 2000 	str.w	r2, [r9]
    return a->idx - b->idx;
    d4e8:	f9b6 2002 	ldrsh.w	r2, [r6, #2]
    d4ec:	f9b4 6002 	ldrsh.w	r6, [r4, #2]
                else if (cmp(p->info, q->info, res) <= 0)
    d4f0:	42b2      	cmp	r2, r6
        b->data16 = (b->data16 & 0xff00) | (0x00ff & (b->data16 >> 8));
    d4f2:	ea4f 2213 	mov.w	r2, r3, lsr #8
    d4f6:	f362 221f 	bfi	r2, r2, #8, #24
    d4fa:	8022      	strh	r2, [r4, #0]
                else if (cmp(p->info, q->info, res) <= 0)
    d4fc:	dd0a      	ble.n	d514 <core_list_init+0x2d8>
    d4fe:	460e      	mov	r6, r1
                    q = q->next;
    d500:	6809      	ldr	r1, [r1, #0]
                    qsize--;
    d502:	f1ab 0b01 	sub.w	fp, fp, #1
                if (tail)
    d506:	2f00      	cmp	r7, #0
    d508:	d1c2      	bne.n	d490 <core_list_init+0x254>
    d50a:	4630      	mov	r0, r6
    d50c:	4637      	mov	r7, r6
            while (psize > 0 || (qsize > 0 && q))
    d50e:	2d00      	cmp	r5, #0
    d510:	dccd      	bgt.n	d4ae <core_list_init+0x272>
    d512:	e7c6      	b.n	d4a2 <core_list_init+0x266>
    d514:	4656      	mov	r6, sl
                    p = p->next;
    d516:	f8da a000 	ldr.w	sl, [sl]
                    psize--;
    d51a:	3d01      	subs	r5, #1
                if (tail)
    d51c:	2f00      	cmp	r7, #0
    d51e:	d1b7      	bne.n	d490 <core_list_init+0x254>
    d520:	e7f3      	b.n	d50a <core_list_init+0x2ce>
    d522:	bf00      	nop
    d524:	460e      	mov	r6, r1
                    q = q->next;
    d526:	6809      	ldr	r1, [r1, #0]
                    qsize--;
    d528:	f1ab 0b01 	sub.w	fp, fp, #1
    d52c:	2500      	movs	r5, #0
                if (tail)
    d52e:	2f00      	cmp	r7, #0
    d530:	d1ae      	bne.n	d490 <core_list_init+0x254>
    d532:	e7ea      	b.n	d50a <core_list_init+0x2ce>

0000d534 <iterate>:
                                    (ee_u16)0xe5a4,
                                    (ee_u16)0x8e3a,
                                    (ee_u16)0x8d84 };
void *
iterate(void *pres)
{
    d534:	b5f0      	push	{r4, r5, r6, r7, lr}
    d536:	b081      	sub	sp, #4
    ee_u32        i;
    ee_u16        crc;
    core_results *res        = (core_results *)pres;
    ee_u32        iterations = res->iterations;
    d538:	69c5      	ldr	r5, [r0, #28]
    d53a:	4604      	mov	r4, r0
    d53c:	2000      	movs	r0, #0
    res->crc                 = 0;
    res->crclist             = 0;
    d53e:	63a0      	str	r0, [r4, #56]	; 0x38
    d540:	63e0      	str	r0, [r4, #60]	; 0x3c
    res->crcmatrix           = 0;
    res->crcstate            = 0;

    for (i = 0; i < iterations; i++)
    d542:	b34d      	cbz	r5, d598 <iterate+0x64>
    d544:	f240 0730 	movw	r7, #48	; 0x30
    d548:	2600      	movs	r6, #0
    d54a:	f2c1 0700 	movt	r7, #4096	; 0x1000
    d54e:	bf00      	nop
    {
        crc      = core_bench_list(res, 1);
    d550:	6838      	ldr	r0, [r7, #0]
    d552:	2101      	movs	r1, #1
    d554:	3001      	adds	r0, #1
    d556:	6038      	str	r0, [r7, #0]
    d558:	4620      	mov	r0, r4
    d55a:	f7ff fafb 	bl	cb54 <core_bench_list>
        res->crc = crcu16(crc, res->crc);
    d55e:	683a      	ldr	r2, [r7, #0]
    d560:	8f21      	ldrh	r1, [r4, #56]	; 0x38
    d562:	3201      	adds	r2, #1
    d564:	603a      	str	r2, [r7, #0]
    d566:	f001 ffec 	bl	f542 <crcu16>
        crc      = core_bench_list(res, -1);
    d56a:	6839      	ldr	r1, [r7, #0]
        res->crc = crcu16(crc, res->crc);
    d56c:	8720      	strh	r0, [r4, #56]	; 0x38
        crc      = core_bench_list(res, -1);
    d56e:	1c48      	adds	r0, r1, #1
    d570:	6038      	str	r0, [r7, #0]
    d572:	4620      	mov	r0, r4
    d574:	f04f 31ff 	mov.w	r1, #4294967295	; 0xffffffff
    d578:	f7ff faec 	bl	cb54 <core_bench_list>
        res->crc = crcu16(crc, res->crc);
    d57c:	683a      	ldr	r2, [r7, #0]
    d57e:	8f21      	ldrh	r1, [r4, #56]	; 0x38
    d580:	3201      	adds	r2, #1
    d582:	603a      	str	r2, [r7, #0]
    d584:	f001 ffdd 	bl	f542 <crcu16>
        if (i == 0)
    d588:	2e00      	cmp	r6, #0
    for (i = 0; i < iterations; i++)
    d58a:	f106 0601 	add.w	r6, r6, #1
        res->crc = crcu16(crc, res->crc);
    d58e:	8720      	strh	r0, [r4, #56]	; 0x38
            res->crclist = res->crc;
    d590:	bf08      	it	eq
    d592:	8760      	strheq	r0, [r4, #58]	; 0x3a
    for (i = 0; i < iterations; i++)
    d594:	42b5      	cmp	r5, r6
    d596:	d1db      	bne.n	d550 <iterate+0x1c>
    }
    return NULL;
    d598:	2000      	movs	r0, #0
    d59a:	b001      	add	sp, #4
    d59c:	bdf0      	pop	{r4, r5, r6, r7, pc}
    d59e:	d4d4      	bmi.n	d54a <iterate+0x16>

0000d5a0 <main>:
    int   argc = 0;
    char *argv[1];
#else
MAIN_RETURN_TYPE
main(int argc, char *argv[])
{
    d5a0:	e92d 4ff0 	stmdb	sp!, {r4, r5, r6, r7, r8, r9, sl, fp, lr}
    d5a4:	f5ad 6d04 	sub.w	sp, sp, #2112	; 0x840
    d5a8:	b083      	sub	sp, #12
    core_results results[MULTITHREAD];
#if (MEM_METHOD == MEM_STACK)
    ee_u8 stack_memblock[TOTAL_DATA_SIZE * MULTITHREAD];
#endif
    /* first call any initializations needed */
    portable_init(&(results[0].port), &argc, argv);
    d5aa:	f240 0b30 	movw	fp, #48	; 0x30
    d5ae:	f2c1 0b00 	movt	fp, #4096	; 0x1000
    d5b2:	f8db 1000 	ldr.w	r1, [fp]
            retval = seed1_volatile;
    d5b6:	f240 0610 	movw	r6, #16
    d5ba:	1c48      	adds	r0, r1, #1
    d5bc:	f8cb 0000 	str.w	r0, [fp]
    d5c0:	2001      	movs	r0, #1
    }
    if (sizeof(ee_u32) != 4)
    {
        ee_printf("ERROR! Please define ee_u32 to a 32b unsigned type!\n");
    }
    p->portable_id = 1;
    d5c2:	f88d 084a 	strb.w	r0, [sp, #2122]	; 0x84a
    if (sizeof(struct list_head_s) > 128)
    {
        ee_printf("list_head structure too big for comparable data!\n");
        return MAIN_RETURN_VAL;
    }
    results[0].seed1      = get_seed(1);
    d5c6:	1c88      	adds	r0, r1, #2
    d5c8:	f8cb 0000 	str.w	r0, [fp]
    d5cc:	1cc8      	adds	r0, r1, #3
    d5ce:	f8cb 0000 	str.w	r0, [fp]
    d5d2:	f2c1 0600 	movt	r6, #4096	; 0x1000
    d5d6:	f8d6 c000 	ldr.w	ip, [r6]
    results[0].seed2      = get_seed(2);
    d5da:	1d08      	adds	r0, r1, #4
    results[0].seed1      = get_seed(1);
    d5dc:	f8ad c808 	strh.w	ip, [sp, #2056]	; 0x808
    results[0].seed2      = get_seed(2);
    d5e0:	f8cb 0000 	str.w	r0, [fp]
            retval = seed2_volatile;
    d5e4:	1d48      	adds	r0, r1, #5
    d5e6:	f8cb 0000 	str.w	r0, [fp]
    d5ea:	6870      	ldr	r0, [r6, #4]
    results[0].seed3      = get_seed(3);
    d5ec:	1d8a      	adds	r2, r1, #6
    results[0].seed2      = get_seed(2);
    d5ee:	f8ad 080a 	strh.w	r0, [sp, #2058]	; 0x80a
    results[0].seed3      = get_seed(3);
    d5f2:	f8cb 2000 	str.w	r2, [fp]
            retval = seed3_volatile;
    d5f6:	1dca      	adds	r2, r1, #7
    d5f8:	f240 0700 	movw	r7, #0
    d5fc:	f8cb 2000 	str.w	r2, [fp]
    d600:	f2c1 0700 	movt	r7, #4096	; 0x1000
    d604:	683a      	ldr	r2, [r7, #0]
    results[0].iterations = get_seed_32(4);
    d606:	f101 0308 	add.w	r3, r1, #8
    results[0].seed3      = get_seed(3);
    d60a:	f8ad 280c 	strh.w	r2, [sp, #2060]	; 0x80c
    results[0].iterations = get_seed_32(4);
    d60e:	f8cb 3000 	str.w	r3, [fp]
            retval = seed4_volatile;
    d612:	f101 0309 	add.w	r3, r1, #9
    d616:	f8cb 3000 	str.w	r3, [fp]
    d61a:	687b      	ldr	r3, [r7, #4]
    d61c:	f8cd 3824 	str.w	r3, [sp, #2084]	; 0x824
#if CORE_DEBUG
    results[0].iterations = 1;
#endif
    results[0].execs = get_seed_32(5);
    d620:	f101 030a 	add.w	r3, r1, #10
    d624:	f8cb 3000 	str.w	r3, [fp]
            retval = seed5_volatile;
    d628:	f101 030b 	add.w	r3, r1, #11
    d62c:	f8cb 3000 	str.w	r3, [fp]
    d630:	f8d6 e008 	ldr.w	lr, [r6, #8]
    if (results[0].execs == 0)
    d634:	f1be 0f00 	cmp.w	lr, #0
    results[0].execs = get_seed_32(5);
    d638:	f8cd e828 	str.w	lr, [sp, #2088]	; 0x828
    if (results[0].execs == 0)
    d63c:	d00f      	beq.n	d65e <main+0xbe>
    { /* if not supplied, execute all algorithms */
        results[0].execs = ALL_ALGORITHMS_MASK;
    }
    /* put in some default values based on one seed only for easy testing */
    if ((results[0].seed1 == 0) && (results[0].seed2 == 0)
    d63e:	ea40 010c 	orr.w	r1, r0, ip
    d642:	4311      	orrs	r1, r2
    d644:	0409      	lsls	r1, r1, #16
    d646:	d017      	beq.n	d678 <main+0xd8>
    results[0].seed1      = get_seed(1);
    d648:	fa1f f18c 	uxth.w	r1, ip
    { /* perfromance run */
        results[0].seed1 = 0;
        results[0].seed2 = 0;
        results[0].seed3 = 0x66;
    }
    if ((results[0].seed1 == 1) && (results[0].seed2 == 0)
    d64c:	2901      	cmp	r1, #1
    d64e:	bf04      	itt	eq
    d650:	4310      	orreq	r0, r2
    d652:	ea5f 4000 	movseq.w	r0, r0, lsl #16
    d656:	d11b      	bne.n	d690 <main+0xf0>
    d658:	f243 4c15 	movw	ip, #13333	; 0x3415
    d65c:	e00e      	b.n	d67c <main+0xdc>
        results[0].execs = ALL_ALGORITHMS_MASK;
    d65e:	f101 030c 	add.w	r3, r1, #12
    d662:	f04f 0e07 	mov.w	lr, #7
    d666:	f8cb 3000 	str.w	r3, [fp]
    d66a:	f8cd e828 	str.w	lr, [sp, #2088]	; 0x828
    if ((results[0].seed1 == 0) && (results[0].seed2 == 0)
    d66e:	ea40 010c 	orr.w	r1, r0, ip
    d672:	4311      	orrs	r1, r2
    d674:	0409      	lsls	r1, r1, #16
    d676:	d1e7      	bne.n	d648 <main+0xa8>
    d678:	f04f 0c00 	mov.w	ip, #0
    d67c:	3301      	adds	r3, #1
    d67e:	2066      	movs	r0, #102	; 0x66
    d680:	f8cb 3000 	str.w	r3, [fp]
    d684:	f8ad c808 	strh.w	ip, [sp, #2056]	; 0x808
    d688:	f8ad c80a 	strh.w	ip, [sp, #2058]	; 0x80a
    d68c:	f8ad 080c 	strh.w	r0, [sp, #2060]	; 0x80c
    d690:	2200      	movs	r2, #0
#elif (MEM_METHOD == MEM_STACK)
for (i = 0; i < MULTITHREAD; i++)
{
    results[i].memblock[0] = stack_memblock + i * TOTAL_DATA_SIZE;
    results[i].size        = TOTAL_DATA_SIZE;
    results[i].seed1       = results[0].seed1;
    d692:	1c58      	adds	r0, r3, #1
    d694:	f8ad 2848 	strh.w	r2, [sp, #2120]	; 0x848
    d698:	f8cb 0000 	str.w	r0, [fp]
    results[i].seed2       = results[0].seed2;
    d69c:	1c98      	adds	r0, r3, #2
    d69e:	f8cb 0000 	str.w	r0, [fp]
    results[i].seed3       = results[0].seed3;
    d6a2:	1cd8      	adds	r0, r3, #3
    d6a4:	f8cb 0000 	str.w	r0, [fp]
    results[i].err         = 0;
    results[i].execs       = results[0].execs;
    d6a8:	1d18      	adds	r0, r3, #4
#endif
    /* Data init */
    /* Find out how space much we have based on number of algorithms */
    for (i = 0; i < NUM_ALGORITHMS; i++)
    {
        if ((1 << (ee_u32)i) & results[0].execs)
    d6aa:	f01e 0601 	ands.w	r6, lr, #1
    d6ae:	f00e 0702 	and.w	r7, lr, #2
    results[i].execs       = results[0].execs;
    d6b2:	f8cb 0000 	str.w	r0, [fp]
        if ((1 << (ee_u32)i) & results[0].execs)
    d6b6:	eb06 0057 	add.w	r0, r6, r7, lsr #1
    d6ba:	f00e 0504 	and.w	r5, lr, #4
    d6be:	eb00 0095 	add.w	r0, r0, r5, lsr #2
    d6c2:	f44f 64fa 	mov.w	r4, #2000	; 0x7d0
            num_algorithms++;
    }
    for (i = 0; i < MULTITHREAD; i++)
        results[i].size = results[i].size / num_algorithms;
    d6c6:	fbb4 f0f0 	udiv	r0, r4, r0
    d6ca:	a90e      	add	r1, sp, #56	; 0x38
    d6cc:	f103 0405 	add.w	r4, r3, #5
    results[i].memblock[0] = stack_memblock + i * TOTAL_DATA_SIZE;
    d6d0:	f8cd 1810 	str.w	r1, [sp, #2064]	; 0x810
        results[i].size = results[i].size / num_algorithms;
    d6d4:	f8cb 4000 	str.w	r4, [fp]
    d6d8:	f8cd 0820 	str.w	r0, [sp, #2080]	; 0x820
    /* Assign pointers */
    for (i = 0; i < NUM_ALGORITHMS; i++)
    {
        ee_u32 ctx;
        if ((1 << (ee_u32)i) & results[0].execs)
    d6dc:	d13d      	bne.n	d75a <main+0x1ba>
    d6de:	2f00      	cmp	r7, #0
    d6e0:	d143      	bne.n	d76a <main+0x1ca>
    d6e2:	2d00      	cmp	r5, #0
    d6e4:	d14b      	bne.n	d77e <main+0x1de>
        }
    }
    /* call inits */
    for (i = 0; i < MULTITHREAD; i++)
    {
        if (results[i].execs & ID_LIST)
    d6e6:	2e00      	cmp	r6, #0
    d6e8:	d152      	bne.n	d790 <main+0x1f0>
        {
            results[i].list = core_list_init(
                results[0].size, results[i].memblock[1], results[i].seed1);
        }
        if (results[i].execs & ID_MATRIX)
    d6ea:	2f00      	cmp	r7, #0
    d6ec:	d05f      	beq.n	d7ae <main+0x20e>
        {
            core_init_matrix(results[0].size,
                             results[i].memblock[2],
                             (ee_s32)results[i].seed1
    d6ee:	f9bd 0808 	ldrsh.w	r0, [sp, #2056]	; 0x808
                                 | (((ee_s32)results[i].seed2) << 16),
    d6f2:	f8bd 180a 	ldrh.w	r1, [sp, #2058]	; 0x80a
            core_init_matrix(results[0].size,
    d6f6:	f8dd 2820 	ldr.w	r2, [sp, #2080]	; 0x820
                                 | (((ee_s32)results[i].seed2) << 16),
    d6fa:	ea40 4401 	orr.w	r4, r0, r1, lsl #16
            core_init_matrix(results[0].size,
    d6fe:	f8db 0000 	ldr.w	r0, [fp]
                             results[i].memblock[2],
    d702:	f8dd 1818 	ldr.w	r1, [sp, #2072]	; 0x818
    d706:	2c00      	cmp	r4, #0
            core_init_matrix(results[0].size,
    d708:	f100 0001 	add.w	r0, r0, #1
    d70c:	bf08      	it	eq
    d70e:	2401      	moveq	r4, #1
    ee_s32  order = 1;
    MATDAT  val;
    ee_u32  i = 0, j = 0;
    if (seed == 0)
        seed = 1;
    while (j < blksize)
    d710:	2a00      	cmp	r2, #0
    d712:	f8cb 0000 	str.w	r0, [fp]
    d716:	d04f      	beq.n	d7b8 <main+0x218>
    d718:	2320      	movs	r3, #32
    d71a:	f04f 30ff 	mov.w	r0, #4294967295	; 0xffffffff
    d71e:	bf00      	nop
    {
        i++;
        j = i * i * 2 * 4;
    d720:	f100 0c02 	add.w	ip, r0, #2
    d724:	f1a3 0718 	sub.w	r7, r3, #24
    d728:	fb07 f70c 	mul.w	r7, r7, ip
    while (j < blksize)
    d72c:	4297      	cmp	r7, r2
    d72e:	d24e      	bcs.n	d7ce <main+0x22e>
        j = i * i * 2 * 4;
    d730:	1cc7      	adds	r7, r0, #3
    d732:	f1a3 0610 	sub.w	r6, r3, #16
    d736:	437e      	muls	r6, r7
    while (j < blksize)
    d738:	4296      	cmp	r6, r2
    d73a:	d24c      	bcs.n	d7d6 <main+0x236>
        j = i * i * 2 * 4;
    d73c:	f100 0c04 	add.w	ip, r0, #4
    d740:	f1a3 0608 	sub.w	r6, r3, #8
    d744:	fb06 f60c 	mul.w	r6, r6, ip
    while (j < blksize)
    d748:	4296      	cmp	r6, r2
    d74a:	d243      	bcs.n	d7d4 <main+0x234>
        j = i * i * 2 * 4;
    d74c:	3005      	adds	r0, #5
    d74e:	4358      	muls	r0, r3
    while (j < blksize)
    d750:	3320      	adds	r3, #32
    d752:	4290      	cmp	r0, r2
    d754:	4660      	mov	r0, ip
    d756:	d3e3      	bcc.n	d720 <main+0x180>
    d758:	e03d      	b.n	d7d6 <main+0x236>
                    = (char *)(results[ctx].memblock[0]) + results[0].size * j;
    d75a:	1d9c      	adds	r4, r3, #6
    d75c:	2201      	movs	r2, #1
    d75e:	f8cb 4000 	str.w	r4, [fp]
    d762:	f8cd 1814 	str.w	r1, [sp, #2068]	; 0x814
        if ((1 << (ee_u32)i) & results[0].execs)
    d766:	2f00      	cmp	r7, #0
    d768:	d0bb      	beq.n	d6e2 <main+0x142>
                    = (char *)(results[ctx].memblock[0]) + results[0].size * j;
    d76a:	fb10 1302 	smlabb	r3, r0, r2, r1
    d76e:	3401      	adds	r4, #1
            j++;
    d770:	3201      	adds	r2, #1
                    = (char *)(results[ctx].memblock[0]) + results[0].size * j;
    d772:	f8cb 4000 	str.w	r4, [fp]
    d776:	f8cd 3818 	str.w	r3, [sp, #2072]	; 0x818
        if ((1 << (ee_u32)i) & results[0].execs)
    d77a:	2d00      	cmp	r5, #0
    d77c:	d0b3      	beq.n	d6e6 <main+0x146>
                    = (char *)(results[ctx].memblock[0]) + results[0].size * j;
    d77e:	fb10 1202 	smlabb	r2, r0, r2, r1
    d782:	3401      	adds	r4, #1
    d784:	f8cb 4000 	str.w	r4, [fp]
    d788:	f8cd 281c 	str.w	r2, [sp, #2076]	; 0x81c
        if (results[i].execs & ID_LIST)
    d78c:	2e00      	cmp	r6, #0
    d78e:	d0ac      	beq.n	d6ea <main+0x14a>
            results[i].list = core_list_init(
    d790:	1c62      	adds	r2, r4, #1
    d792:	f8cb 2000 	str.w	r2, [fp]
    d796:	fa0f f28c 	sxth.w	r2, ip
    d79a:	f7ff fd4f 	bl	d23c <core_list_init>
        if (results[i].execs & ID_MATRIX)
    d79e:	f8dd e828 	ldr.w	lr, [sp, #2088]	; 0x828
            results[i].list = core_list_init(
    d7a2:	f8cd 082c 	str.w	r0, [sp, #2092]	; 0x82c
        if (results[i].execs & ID_MATRIX)
    d7a6:	f00e 0702 	and.w	r7, lr, #2
    d7aa:	2f00      	cmp	r7, #0
    d7ac:	d19f      	bne.n	d6ee <main+0x14e>
                             &(results[i].mat));
        }
        if (results[i].execs & ID_STATE)
    d7ae:	ea5f 704e 	movs.w	r0, lr, lsl #29
    d7b2:	f100 8104 	bmi.w	d9be <main+0x41e>
    d7b6:	e171      	b.n	da9c <main+0x4fc>
    }
    N = i - 1;
    A = (MATDAT *)align_mem(memblk);
    d7b8:	1cc8      	adds	r0, r1, #3
    d7ba:	f020 0503 	bic.w	r5, r0, #3
    B = A + N * N;
    d7be:	1caa      	adds	r2, r5, #2
    d7c0:	f04f 3cff 	mov.w	ip, #4294967295	; 0xffffffff
    d7c4:	2001      	movs	r0, #1
    d7c6:	f8cd e010 	str.w	lr, [sp, #16]

    for (i = 0; i < N; i++)
    d7ca:	9003      	str	r0, [sp, #12]
    d7cc:	e012      	b.n	d7f4 <main+0x254>
    A = (MATDAT *)align_mem(memblk);
    d7ce:	f100 0c01 	add.w	ip, r0, #1
    d7d2:	e000      	b.n	d7d6 <main+0x236>
    d7d4:	46bc      	mov	ip, r7
    d7d6:	1cc8      	adds	r0, r1, #3
    d7d8:	f020 0503 	bic.w	r5, r0, #3
    B = A + N * N;
    d7dc:	fb0c f00c 	mul.w	r0, ip, ip
    for (i = 0; i < N; i++)
    d7e0:	f1bc 0f00 	cmp.w	ip, #0
    B = A + N * N;
    d7e4:	eb05 0140 	add.w	r1, r5, r0, lsl #1
    for (i = 0; i < N; i++)
    d7e8:	9109      	str	r1, [sp, #36]	; 0x24
    d7ea:	f000 80d4 	beq.w	d996 <main+0x3f6>
    d7ee:	9a09      	ldr	r2, [sp, #36]	; 0x24
    d7f0:	e9cd 0e03 	strd	r0, lr, [sp, #12]
    d7f4:	f1ac 0001 	sub.w	r0, ip, #1
    d7f8:	f00c 0303 	and.w	r3, ip, #3
    d7fc:	900d      	str	r0, [sp, #52]	; 0x34
    d7fe:	ebac 0603 	sub.w	r6, ip, r3
    d802:	ea4f 004c 	mov.w	r0, ip, lsl #1
    d806:	f04f 0b01 	mov.w	fp, #1
    d80a:	2100      	movs	r1, #0
    d80c:	f64f 77ff 	movw	r7, #65535	; 0xffff
    d810:	4692      	mov	sl, r2
    d812:	46a9      	mov	r9, r5
    d814:	900c      	str	r0, [sp, #48]	; 0x30
    d816:	4610      	mov	r0, r2
    d818:	9209      	str	r2, [sp, #36]	; 0x24
    d81a:	930b      	str	r3, [sp, #44]	; 0x2c
    d81c:	e9cd 5c07 	strd	r5, ip, [sp, #28]
    {
        for (j = 0; j < N; j++)
    d820:	980d      	ldr	r0, [sp, #52]	; 0x34
    d822:	2803      	cmp	r0, #3
    d824:	d30c      	bcc.n	d840 <main+0x2a0>
    d826:	e011      	b.n	d84c <main+0x2ac>
            val          = matrix_clip(val, 0);
            B[i * N + j] = val;
            val          = (val + order);
            val          = matrix_clip(val, 1);
            A[i * N + j] = val;
            order++;
    d828:	4693      	mov	fp, r2
    d82a:	4671      	mov	r1, lr
    d82c:	980c      	ldr	r0, [sp, #48]	; 0x30
    for (i = 0; i < N; i++)
    d82e:	3101      	adds	r1, #1
    d830:	4481      	add	r9, r0
    d832:	4561      	cmp	r1, ip
    d834:	4482      	add	sl, r0
    d836:	f000 80a7 	beq.w	d988 <main+0x3e8>
        for (j = 0; j < N; j++)
    d83a:	980d      	ldr	r0, [sp, #52]	; 0x34
    d83c:	2803      	cmp	r0, #3
    d83e:	d205      	bcs.n	d84c <main+0x2ac>
    d840:	f04f 0800 	mov.w	r8, #0
    d844:	2b00      	cmp	r3, #0
    d846:	d15d      	bne.n	d904 <main+0x364>
    d848:	e7f0      	b.n	d82c <main+0x28c>
    d84a:	bf00      	nop
    d84c:	ea4f 0e4b 	mov.w	lr, fp, lsl #1
    d850:	f04f 0c00 	mov.w	ip, #0
    d854:	f04f 0800 	mov.w	r8, #0
    d858:	910a      	str	r1, [sp, #40]	; 0x28
    d85a:	bf00      	nop
            seed         = ((order * seed) % 65536);
    d85c:	eb0b 0508 	add.w	r5, fp, r8
    d860:	fb05 f004 	mul.w	r0, r5, r4
    d864:	17c2      	asrs	r2, r0, #31
    d866:	eb00 4212 	add.w	r2, r0, r2, lsr #16
    d86a:	43ba      	bics	r2, r7
    d86c:	1a80      	subs	r0, r0, r2
            val          = matrix_clip(val, 0);
    d86e:	182a      	adds	r2, r5, r0
            B[i * N + j] = val;
    d870:	f82a 200c 	strh.w	r2, [sl, ip]
            val          = matrix_clip(val, 1);
    d874:	eb0e 020c 	add.w	r2, lr, ip
    d878:	1814      	adds	r4, r2, r0
    d87a:	b2e4      	uxtb	r4, r4
            A[i * N + j] = val;
    d87c:	f829 400c 	strh.w	r4, [r9, ip]
        for (j = 0; j < N; j++)
    d880:	1c6c      	adds	r4, r5, #1
            seed         = ((order * seed) % 65536);
    d882:	4360      	muls	r0, r4
    d884:	17c4      	asrs	r4, r0, #31
    d886:	eb00 4414 	add.w	r4, r0, r4, lsr #16
    d88a:	f36f 040f 	bfc	r4, #0, #16
    d88e:	1b00      	subs	r0, r0, r4
            val          = matrix_clip(val, 0);
    d890:	182c      	adds	r4, r5, r0
    d892:	3401      	adds	r4, #1
            B[i * N + j] = val;
    d894:	eb0a 0348 	add.w	r3, sl, r8, lsl #1
    d898:	805c      	strh	r4, [r3, #2]
            val          = matrix_clip(val, 1);
    d89a:	1814      	adds	r4, r2, r0
    d89c:	3402      	adds	r4, #2
    d89e:	b2e4      	uxtb	r4, r4
            A[i * N + j] = val;
    d8a0:	eb09 0148 	add.w	r1, r9, r8, lsl #1
    d8a4:	804c      	strh	r4, [r1, #2]
        for (j = 0; j < N; j++)
    d8a6:	1cac      	adds	r4, r5, #2
            seed         = ((order * seed) % 65536);
    d8a8:	4360      	muls	r0, r4
    d8aa:	17c4      	asrs	r4, r0, #31
    d8ac:	eb00 4414 	add.w	r4, r0, r4, lsr #16
    d8b0:	f36f 040f 	bfc	r4, #0, #16
    d8b4:	1b00      	subs	r0, r0, r4
            val          = matrix_clip(val, 0);
    d8b6:	182c      	adds	r4, r5, r0
    d8b8:	3402      	adds	r4, #2
            B[i * N + j] = val;
    d8ba:	809c      	strh	r4, [r3, #4]
            val          = matrix_clip(val, 1);
    d8bc:	1813      	adds	r3, r2, r0
    d8be:	3304      	adds	r3, #4
    d8c0:	b2db      	uxtb	r3, r3
            A[i * N + j] = val;
    d8c2:	808b      	strh	r3, [r1, #4]
        for (j = 0; j < N; j++)
    d8c4:	1ce9      	adds	r1, r5, #3
            seed         = ((order * seed) % 65536);
    d8c6:	4348      	muls	r0, r1
    d8c8:	17c1      	asrs	r1, r0, #31
    d8ca:	eb00 4111 	add.w	r1, r0, r1, lsr #16
    d8ce:	f36f 010f 	bfc	r1, #0, #16
    d8d2:	1a44      	subs	r4, r0, r1
            val          = matrix_clip(val, 0);
    d8d4:	1929      	adds	r1, r5, r4
            B[i * N + j] = val;
    d8d6:	eb0a 000c 	add.w	r0, sl, ip
            val          = matrix_clip(val, 0);
    d8da:	3103      	adds	r1, #3
            B[i * N + j] = val;
    d8dc:	80c1      	strh	r1, [r0, #6]
            val          = matrix_clip(val, 1);
    d8de:	1911      	adds	r1, r2, r4
    d8e0:	3106      	adds	r1, #6
        for (j = 0; j < N; j++)
    d8e2:	f108 0804 	add.w	r8, r8, #4
            A[i * N + j] = val;
    d8e6:	eb09 000c 	add.w	r0, r9, ip
            val          = matrix_clip(val, 1);
    d8ea:	b2c9      	uxtb	r1, r1
        for (j = 0; j < N; j++)
    d8ec:	4546      	cmp	r6, r8
    d8ee:	f10c 0c08 	add.w	ip, ip, #8
            A[i * N + j] = val;
    d8f2:	80c1      	strh	r1, [r0, #6]
    d8f4:	d1b2      	bne.n	d85c <main+0x2bc>
    d8f6:	e9dd 5c07 	ldrd	r5, ip, [sp, #28]
    d8fa:	e9dd 130a 	ldrd	r1, r3, [sp, #40]	; 0x28
        for (j = 0; j < N; j++)
    d8fe:	44c3      	add	fp, r8
    d900:	2b00      	cmp	r3, #0
    d902:	d093      	beq.n	d82c <main+0x28c>
    d904:	468e      	mov	lr, r1
    d906:	fb01 f00c 	mul.w	r0, r1, ip
            seed         = ((order * seed) % 65536);
    d90a:	fb0b f104 	mul.w	r1, fp, r4
    d90e:	17ca      	asrs	r2, r1, #31
    d910:	eb01 4212 	add.w	r2, r1, r2, lsr #16
    d914:	43ba      	bics	r2, r7
    d916:	1a8c      	subs	r4, r1, r2
            B[i * N + j] = val;
    d918:	4440      	add	r0, r8
    d91a:	f8dd 8024 	ldr.w	r8, [sp, #36]	; 0x24
            val          = (seed + order);
    d91e:	eb04 010b 	add.w	r1, r4, fp
            B[i * N + j] = val;
    d922:	f828 1010 	strh.w	r1, [r8, r0, lsl #1]
            val          = (val + order);
    d926:	4459      	add	r1, fp
            val          = matrix_clip(val, 1);
    d928:	b2c9      	uxtb	r1, r1
        for (j = 0; j < N; j++)
    d92a:	2b01      	cmp	r3, #1
            order++;
    d92c:	f10b 0201 	add.w	r2, fp, #1
            A[i * N + j] = val;
    d930:	f825 1010 	strh.w	r1, [r5, r0, lsl #1]
        for (j = 0; j < N; j++)
    d934:	f43f af78 	beq.w	d828 <main+0x288>
            seed         = ((order * seed) % 65536);
    d938:	fb02 f104 	mul.w	r1, r2, r4
    d93c:	17cb      	asrs	r3, r1, #31
    d93e:	eb01 4313 	add.w	r3, r1, r3, lsr #16
    d942:	43bb      	bics	r3, r7
    d944:	1acc      	subs	r4, r1, r3
            val          = (seed + order);
    d946:	18a1      	adds	r1, r4, r2
            B[i * N + j] = val;
    d948:	1c43      	adds	r3, r0, #1
    d94a:	f828 1013 	strh.w	r1, [r8, r3, lsl #1]
            val          = (val + order);
    d94e:	4411      	add	r1, r2
            val          = matrix_clip(val, 1);
    d950:	b2c9      	uxtb	r1, r1
            A[i * N + j] = val;
    d952:	f825 1013 	strh.w	r1, [r5, r3, lsl #1]
    d956:	9b0b      	ldr	r3, [sp, #44]	; 0x2c
            order++;
    d958:	f10b 0202 	add.w	r2, fp, #2
        for (j = 0; j < N; j++)
    d95c:	2b02      	cmp	r3, #2
    d95e:	f43f af63 	beq.w	d828 <main+0x288>
            seed         = ((order * seed) % 65536);
    d962:	fb02 f104 	mul.w	r1, r2, r4
    d966:	17cb      	asrs	r3, r1, #31
    d968:	eb01 4313 	add.w	r3, r1, r3, lsr #16
    d96c:	43bb      	bics	r3, r7
    d96e:	1acc      	subs	r4, r1, r3
            val          = (seed + order);
    d970:	18a1      	adds	r1, r4, r2
            B[i * N + j] = val;
    d972:	3002      	adds	r0, #2
    d974:	f828 1010 	strh.w	r1, [r8, r0, lsl #1]
            val          = (val + order);
    d978:	4411      	add	r1, r2
    d97a:	9b0b      	ldr	r3, [sp, #44]	; 0x2c
            val          = matrix_clip(val, 1);
    d97c:	b2c9      	uxtb	r1, r1
            A[i * N + j] = val;
    d97e:	f825 1010 	strh.w	r1, [r5, r0, lsl #1]
            order++;
    d982:	f10b 0b03 	add.w	fp, fp, #3
    d986:	e750      	b.n	d82a <main+0x28a>
    d988:	f240 0b30 	movw	fp, #48	; 0x30
    d98c:	e9dd 0e03 	ldrd	r0, lr, [sp, #12]
    d990:	f2c1 0b00 	movt	fp, #4096	; 0x1000
    d994:	e002      	b.n	d99c <main+0x3fc>
    d996:	2000      	movs	r0, #0
    d998:	f04f 0c00 	mov.w	ip, #0
    d99c:	9909      	ldr	r1, [sp, #36]	; 0x24
        }
    }

    p->A = A;
    d99e:	f8cd 5834 	str.w	r5, [sp, #2100]	; 0x834
    p->B = B;
    p->C = (MATRES *)align_mem(B + N * N);
    d9a2:	eb01 0040 	add.w	r0, r1, r0, lsl #1
    d9a6:	3003      	adds	r0, #3
    d9a8:	f020 0003 	bic.w	r0, r0, #3
    p->B = B;
    d9ac:	f8cd 1838 	str.w	r1, [sp, #2104]	; 0x838
    p->C = (MATRES *)align_mem(B + N * N);
    d9b0:	f8cd 083c 	str.w	r0, [sp, #2108]	; 0x83c
    p->N = N;
    d9b4:	f8cd c830 	str.w	ip, [sp, #2096]	; 0x830
    d9b8:	ea5f 704e 	movs.w	r0, lr, lsl #29
    d9bc:	d56e      	bpl.n	da9c <main+0x4fc>
        {
            core_init_state(
                results[0].size, results[i].seed1, results[i].memblock[3]);
    d9be:	f8dd a820 	ldr.w	sl, [sp, #2080]	; 0x820
            core_init_state(
    d9c2:	f8db 1000 	ldr.w	r1, [fp]
                results[0].size, results[i].seed1, results[i].memblock[3]);
    d9c6:	f8dd 081c 	ldr.w	r0, [sp, #2076]	; 0x81c
    d9ca:	f8bd 2808 	ldrh.w	r2, [sp, #2056]	; 0x808
    ee_u8 *buf = 0;
#if CORE_DEBUG
    ee_u8 *start = p;
    ee_printf("State: %d,%d\n", size, seed);
#endif
    size--;
    d9ce:	f1aa 0301 	sub.w	r3, sl, #1
            core_init_state(
    d9d2:	3101      	adds	r1, #1
    next = 0;
    while ((total + next + 1) < size)
    d9d4:	2b02      	cmp	r3, #2
    d9d6:	f8cb 1000 	str.w	r1, [fp]
    d9da:	d351      	bcc.n	da80 <main+0x4e0>
    d9dc:	f641 2cfc 	movw	ip, #6908	; 0x1afc
    d9e0:	f641 2eec 	movw	lr, #6892	; 0x1aec
    d9e4:	f641 381c 	movw	r8, #6940	; 0x1b1c
    d9e8:	f641 390c 	movw	r9, #6924	; 0x1b0c
    d9ec:	2500      	movs	r5, #0
    d9ee:	f2c0 0c01 	movt	ip, #1
    d9f2:	f2c0 0e01 	movt	lr, #1
    d9f6:	f2c0 0801 	movt	r8, #1
    d9fa:	f2c0 0901 	movt	r9, #1
    d9fe:	f04f 0b2c 	mov.w	fp, #44	; 0x2c
    da02:	2700      	movs	r7, #0
    da04:	2400      	movs	r4, #0
    da06:	b98c      	cbnz	r4, da2c <main+0x48c>
    da08:	e028      	b.n	da5c <main+0x4bc>
    da0a:	bf00      	nop
    da0c:	2c07      	cmp	r4, #7
    da0e:	f3c1 01c1 	ubfx	r1, r1, #3, #2
            case 6: /* scientific */
                buf  = scipat[(seed >> 3) & 0x3];
                next = 8;
                break;
            case 7: /* invalid */
                buf  = errpat[(seed >> 3) & 0x3];
    da12:	bf0c      	ite	eq
    da14:	eb08 0581 	addeq.w	r5, r8, r1, lsl #2
                buf  = scipat[(seed >> 3) & 0x3];
    da18:	eb09 0581 	addne.w	r5, r9, r1, lsl #2
    da1c:	2408      	movs	r4, #8
    while ((total + next + 1) < size)
    da1e:	f044 0101 	orr.w	r1, r4, #1
    da22:	682d      	ldr	r5, [r5, #0]
    da24:	4439      	add	r1, r7
    da26:	4299      	cmp	r1, r3
    da28:	d22c      	bcs.n	da84 <main+0x4e4>
        if (next > 0)
    da2a:	b1bc      	cbz	r4, da5c <main+0x4bc>
                *(p + total + i) = buf[i];
    da2c:	7829      	ldrb	r1, [r5, #0]
            for (i = 0; i < next; i++)
    da2e:	2c04      	cmp	r4, #4
                *(p + total + i) = buf[i];
    da30:	55c1      	strb	r1, [r0, r7]
    da32:	786e      	ldrb	r6, [r5, #1]
    da34:	eb00 0107 	add.w	r1, r0, r7
    da38:	704e      	strb	r6, [r1, #1]
    da3a:	78ae      	ldrb	r6, [r5, #2]
    da3c:	708e      	strb	r6, [r1, #2]
    da3e:	78ee      	ldrb	r6, [r5, #3]
    da40:	70ce      	strb	r6, [r1, #3]
            for (i = 0; i < next; i++)
    da42:	d007      	beq.n	da54 <main+0x4b4>
                *(p + total + i) = buf[i];
    da44:	792e      	ldrb	r6, [r5, #4]
    da46:	710e      	strb	r6, [r1, #4]
    da48:	796e      	ldrb	r6, [r5, #5]
    da4a:	714e      	strb	r6, [r1, #5]
    da4c:	79ae      	ldrb	r6, [r5, #6]
    da4e:	718e      	strb	r6, [r1, #6]
    da50:	79ed      	ldrb	r5, [r5, #7]
    da52:	71cd      	strb	r5, [r1, #7]
            *(p + total + i) = ',';
    da54:	f801 b004 	strb.w	fp, [r1, r4]
            total += next + 1;
    da58:	1939      	adds	r1, r7, r4
    da5a:	1c4f      	adds	r7, r1, #1
        seed++;
    da5c:	3201      	adds	r2, #1
        switch (seed & 0x7)
    da5e:	b211      	sxth	r1, r2
    da60:	f001 0407 	and.w	r4, r1, #7
    da64:	2c05      	cmp	r4, #5
    da66:	d2d1      	bcs.n	da0c <main+0x46c>
    da68:	2c02      	cmp	r4, #2
    da6a:	f3c1 01c1 	ubfx	r1, r1, #3, #2
    da6e:	d903      	bls.n	da78 <main+0x4d8>
                buf  = floatpat[(seed >> 3) & 0x3];
    da70:	eb0c 0581 	add.w	r5, ip, r1, lsl #2
    da74:	e7d2      	b.n	da1c <main+0x47c>
    da76:	bf00      	nop
                buf  = intpat[(seed >> 3) & 0x3];
    da78:	eb0e 0581 	add.w	r5, lr, r1, lsl #2
    da7c:	2404      	movs	r4, #4
    da7e:	e7ce      	b.n	da1e <main+0x47e>
    da80:	2700      	movs	r7, #0
    da82:	e005      	b.n	da90 <main+0x4f0>
    da84:	f240 0b30 	movw	fp, #48	; 0x30
            default: /* Never happen, just to make some compilers happy */
                break;
        }
    }
    size++;
    while (total < size)
    da88:	45ba      	cmp	sl, r7
    da8a:	f2c1 0b00 	movt	fp, #4096	; 0x1000
    da8e:	d905      	bls.n	da9c <main+0x4fc>
    da90:	4438      	add	r0, r7
    da92:	ebaa 0207 	sub.w	r2, sl, r7
    { /* fill the rest with 0 */
        *(p + total) = 0;
    da96:	2100      	movs	r1, #0
    da98:	f003 fdd5 	bl	11646 <memset>
        }
    }

    /* automatically determine number of iterations if not set */
    if (results[0].iterations == 0)
    da9c:	f8dd 1824 	ldr.w	r1, [sp, #2084]	; 0x824
    daa0:	f8db 0000 	ldr.w	r0, [fp]
    daa4:	2900      	cmp	r1, #0
    daa6:	d178      	bne.n	db9a <main+0x5fa>
    daa8:	f241 29d0 	movw	r9, #4816	; 0x12d0
    daac:	f240 0a00 	movw	sl, #0
    {
        secs_ret secs_passed = 0;
        ee_u32   divisor;
        results[0].iterations = 1;
    dab0:	1c45      	adds	r5, r0, #1
    dab2:	2001      	movs	r0, #1
    dab4:	f60d 0808 	addw	r8, sp, #2056	; 0x808
    dab8:	f2c4 1963 	movt	r9, #16739	; 0x4163
    dabc:	f6c3 7af0 	movt	sl, #16368	; 0x3ff0
    dac0:	f8cb 5000 	str.w	r5, [fp]
    dac4:	f8cd 0824 	str.w	r0, [sp, #2084]	; 0x824
        while (secs_passed < (secs_ret)1)
        {
            results[0].iterations *= 10;
    dac8:	eb00 0080 	add.w	r0, r0, r0, lsl #2
    dacc:	0040      	lsls	r0, r0, #1
    dace:	1c69      	adds	r1, r5, #1
    dad0:	f8cb 1000 	str.w	r1, [fp]
    dad4:	f8cd 0824 	str.w	r0, [sp, #2084]	; 0x824
            start_time();
    dad8:	1ca8      	adds	r0, r5, #2
    dada:	f8cb 0000 	str.w	r0, [fp]
    GETMYTIME(&start_time_val);
    dade:	1ce8      	adds	r0, r5, #3
    dae0:	f8cb 0000 	str.w	r0, [fp]
    dae4:	f001 fdb7 	bl	f656 <clock>
    dae8:	f8db 2000 	ldr.w	r2, [fp]
    daec:	1c53      	adds	r3, r2, #1
    daee:	f8cb 3000 	str.w	r3, [fp]
    daf2:	f240 0310 	movw	r3, #16
    daf6:	f2c1 0300 	movt	r3, #4096	; 0x1000
    dafa:	6159      	str	r1, [r3, #20]
    dafc:	6118      	str	r0, [r3, #16]
            iterate(&results[0]);
    dafe:	1c90      	adds	r0, r2, #2
    db00:	f8cb 0000 	str.w	r0, [fp]
    db04:	4640      	mov	r0, r8
    db06:	461c      	mov	r4, r3
    db08:	f7ff fd14 	bl	d534 <iterate>
            stop_time();
    db0c:	f8db 0000 	ldr.w	r0, [fp]
    db10:	1c41      	adds	r1, r0, #1
    GETMYTIME(&stop_time_val);
    db12:	3002      	adds	r0, #2
    db14:	f8cb 1000 	str.w	r1, [fp]
    db18:	f8cb 0000 	str.w	r0, [fp]
    db1c:	f001 fd9b 	bl	f656 <clock>
    db20:	f8db 6000 	ldr.w	r6, [fp]
    db24:	1c72      	adds	r2, r6, #1
    db26:	f8cb 2000 	str.w	r2, [fp]
    db2a:	61e1      	str	r1, [r4, #28]
    db2c:	61a0      	str	r0, [r4, #24]
            secs_passed = time_in_secs(get_time());
    db2e:	1cb0      	adds	r0, r6, #2
    db30:	f8cb 0000 	str.w	r0, [fp]
        = (CORE_TICKS)(MYTIMEDIFF(stop_time_val, start_time_val));
    db34:	1cf0      	adds	r0, r6, #3
    db36:	f8cb 0000 	str.w	r0, [fp]
    db3a:	69a0      	ldr	r0, [r4, #24]
    db3c:	69e1      	ldr	r1, [r4, #28]
    db3e:	1d31      	adds	r1, r6, #4
    db40:	f8cb 1000 	str.w	r1, [fp]
    db44:	6921      	ldr	r1, [r4, #16]
    db46:	6962      	ldr	r2, [r4, #20]
    db48:	1a40      	subs	r0, r0, r1
    db4a:	1d75      	adds	r5, r6, #5
    db4c:	f8cb 5000 	str.w	r5, [fp]
    secs_ret retval = ((secs_ret)ticks) / (secs_ret)EE_TICKS_PER_SEC;
    db50:	f7fe fc18 	bl	c384 <__aeabi_ui2d>
    db54:	2200      	movs	r2, #0
    db56:	464b      	mov	r3, r9
    db58:	f7fe fdb8 	bl	c6cc <__aeabi_ddiv>
        while (secs_passed < (secs_ret)1)
    db5c:	2200      	movs	r2, #0
    db5e:	4653      	mov	r3, sl
    db60:	4607      	mov	r7, r0
    db62:	460c      	mov	r4, r1
    db64:	f7fe fee6 	bl	c934 <__ledf2>
    db68:	f1b0 3fff 	cmp.w	r0, #4294967295	; 0xffffffff
    db6c:	dc02      	bgt.n	db74 <main+0x5d4>
            results[0].iterations *= 10;
    db6e:	f8dd 0824 	ldr.w	r0, [sp, #2084]	; 0x824
    db72:	e7a9      	b.n	dac8 <main+0x528>
        }
        /* now we know it executes for at least 1 sec, set actual run time at
         * about 10 secs */
        divisor = (ee_u32)secs_passed;
    db74:	4638      	mov	r0, r7
    db76:	4621      	mov	r1, r4
    db78:	f7fe feb8 	bl	c8ec <__aeabi_d2uiz>
    db7c:	2800      	cmp	r0, #0
    db7e:	bf08      	it	eq
    db80:	2001      	moveq	r0, #1
    db82:	210a      	movs	r1, #10
        if (divisor == 0) /* some machines cast float to int as 0 since this
                             conversion is not defined by ANSI, but we know at
                             least one second passed */
            divisor = 1;
        results[0].iterations *= 1 + 10 / divisor;
    db84:	fbb1 f0f0 	udiv	r0, r1, r0
    db88:	f8dd 1824 	ldr.w	r1, [sp, #2084]	; 0x824
    db8c:	3001      	adds	r0, #1
    db8e:	4341      	muls	r1, r0
    db90:	1db0      	adds	r0, r6, #6
    db92:	f8cb 0000 	str.w	r0, [fp]
    db96:	f8cd 1824 	str.w	r1, [sp, #2084]	; 0x824
    }
    /* perform actual benchmark */
    start_time();
    db9a:	1c41      	adds	r1, r0, #1
    GETMYTIME(&start_time_val);
    db9c:	3002      	adds	r0, #2
    db9e:	f8cb 1000 	str.w	r1, [fp]
    dba2:	f8cb 0000 	str.w	r0, [fp]
    dba6:	f001 fd56 	bl	f656 <clock>
    dbaa:	f8db 2000 	ldr.w	r2, [fp]
    dbae:	f240 0410 	movw	r4, #16
    dbb2:	1c53      	adds	r3, r2, #1
    dbb4:	f2c1 0400 	movt	r4, #4096	; 0x1000
    dbb8:	f8cb 3000 	str.w	r3, [fp]
    dbbc:	6161      	str	r1, [r4, #20]
    dbbe:	6120      	str	r0, [r4, #16]
    for (i = 0; i < default_num_contexts; i++)
    {
        core_stop_parallel(&results[i]);
    }
#else
    iterate(&results[0]);
    dbc0:	1c90      	adds	r0, r2, #2
    dbc2:	f8cb 0000 	str.w	r0, [fp]
    dbc6:	f60d 0008 	addw	r0, sp, #2056	; 0x808
    dbca:	f7ff fcb3 	bl	d534 <iterate>
#endif
    stop_time();
    dbce:	f8db 0000 	ldr.w	r0, [fp]
    dbd2:	1c41      	adds	r1, r0, #1
    GETMYTIME(&stop_time_val);
    dbd4:	3002      	adds	r0, #2
    dbd6:	f8cb 1000 	str.w	r1, [fp]
    dbda:	f8cb 0000 	str.w	r0, [fp]
    dbde:	f001 fd3a 	bl	f656 <clock>
    dbe2:	f8db 2000 	ldr.w	r2, [fp]
    dbe6:	1c53      	adds	r3, r2, #1
    dbe8:	f8cb 3000 	str.w	r3, [fp]
    dbec:	61e1      	str	r1, [r4, #28]
    dbee:	61a0      	str	r0, [r4, #24]
    total_time = get_time();
    dbf0:	1c90      	adds	r0, r2, #2
    dbf2:	f8cb 0000 	str.w	r0, [fp]
        = (CORE_TICKS)(MYTIMEDIFF(stop_time_val, start_time_val));
    dbf6:	1cd0      	adds	r0, r2, #3
    dbf8:	f8cb 0000 	str.w	r0, [fp]
    dbfc:	69a0      	ldr	r0, [r4, #24]
    dbfe:	69e1      	ldr	r1, [r4, #28]
    dc00:	1d11      	adds	r1, r2, #4
    dc02:	f8cb 1000 	str.w	r1, [fp]
    dc06:	6921      	ldr	r1, [r4, #16]
    dc08:	6963      	ldr	r3, [r4, #20]
    dc0a:	1a45      	subs	r5, r0, r1
    /* get a function of the input to report */
    seedcrc = crc16(results[0].seed1, seedcrc);
    dc0c:	1d51      	adds	r1, r2, #5
    dc0e:	f8bd 0808 	ldrh.w	r0, [sp, #2056]	; 0x808
    dc12:	f8cb 1000 	str.w	r1, [fp]
    return crcu16((ee_u16)newval, crc);
    dc16:	1d91      	adds	r1, r2, #6
    dc18:	f8cb 1000 	str.w	r1, [fp]
    dc1c:	2100      	movs	r1, #0
    dc1e:	f001 fc90 	bl	f542 <crcu16>
    seedcrc = crc16(results[0].seed2, seedcrc);
    dc22:	f8db 2000 	ldr.w	r2, [fp]
    dc26:	4601      	mov	r1, r0
    dc28:	f8bd 080a 	ldrh.w	r0, [sp, #2058]	; 0x80a
    dc2c:	1c53      	adds	r3, r2, #1
    dc2e:	3202      	adds	r2, #2
    dc30:	f8cb 3000 	str.w	r3, [fp]
    dc34:	f8cb 2000 	str.w	r2, [fp]
    dc38:	f001 fc83 	bl	f542 <crcu16>
    seedcrc = crc16(results[0].seed3, seedcrc);
    dc3c:	f8db 2000 	ldr.w	r2, [fp]
    dc40:	4601      	mov	r1, r0
    dc42:	f8bd 080c 	ldrh.w	r0, [sp, #2060]	; 0x80c
    dc46:	1c53      	adds	r3, r2, #1
    dc48:	3202      	adds	r2, #2
    dc4a:	f8cb 3000 	str.w	r3, [fp]
    dc4e:	f8cb 2000 	str.w	r2, [fp]
    dc52:	f001 fc76 	bl	f542 <crcu16>
    seedcrc = crc16(results[0].size, seedcrc);
    dc56:	f8db 2000 	ldr.w	r2, [fp]
    dc5a:	4601      	mov	r1, r0
    dc5c:	f8bd 0820 	ldrh.w	r0, [sp, #2080]	; 0x820
    dc60:	1c53      	adds	r3, r2, #1
    dc62:	3202      	adds	r2, #2
    dc64:	f8cb 3000 	str.w	r3, [fp]
    dc68:	f8cb 2000 	str.w	r2, [fp]
    dc6c:	f001 fc69 	bl	f542 <crcu16>
    dc70:	f647 3105 	movw	r1, #31493	; 0x7b05
    dc74:	4288      	cmp	r0, r1
    dc76:	9006      	str	r0, [sp, #24]
    dc78:	d211      	bcs.n	dc9e <main+0x6fe>
    dc7a:	f644 61af 	movw	r1, #20143	; 0x4eaf
    dc7e:	4288      	cmp	r0, r1
    dc80:	f64f 79ff 	movw	r9, #65535	; 0xffff
    dc84:	d21c      	bcs.n	dcc0 <main+0x720>
    dc86:	f641 01f2 	movw	r1, #6386	; 0x18f2
    dc8a:	4288      	cmp	r0, r1
    dc8c:	d131      	bne.n	dcf2 <main+0x752>
    dc8e:	f641 1074 	movw	r0, #6516	; 0x1974
    dc92:	f04f 0804 	mov.w	r8, #4
    dc96:	f2c0 0001 	movt	r0, #1
    dc9a:	9505      	str	r5, [sp, #20]
    dc9c:	e036      	b.n	dd0c <main+0x76c>
    dc9e:	f648 2202 	movw	r2, #35330	; 0x8a02
    dca2:	4290      	cmp	r0, r2
    dca4:	d216      	bcs.n	dcd4 <main+0x734>
    dca6:	f647 3105 	movw	r1, #31493	; 0x7b05
    dcaa:	4288      	cmp	r0, r1
    dcac:	f040 80da 	bne.w	de64 <main+0x8c4>
    dcb0:	f641 200d 	movw	r0, #6669	; 0x1a0d
    dcb4:	9505      	str	r5, [sp, #20]
    dcb6:	f04f 0801 	mov.w	r8, #1
    dcba:	f2c0 0001 	movt	r0, #1
    dcbe:	e025      	b.n	dd0c <main+0x76c>
    dcc0:	4288      	cmp	r0, r1
    dcc2:	d116      	bne.n	dcf2 <main+0x752>
    dcc4:	f241 7054 	movw	r0, #5972	; 0x1754
    dcc8:	9505      	str	r5, [sp, #20]
    dcca:	f04f 0802 	mov.w	r8, #2
    dcce:	f2c0 0001 	movt	r0, #1
    dcd2:	e01b      	b.n	dd0c <main+0x76c>
    dcd4:	f64e 11f5 	movw	r1, #59893	; 0xe9f5
    dcd8:	4288      	cmp	r0, r1
    dcda:	d20d      	bcs.n	dcf8 <main+0x758>
    dcdc:	4290      	cmp	r0, r2
    dcde:	f040 80c1 	bne.w	de64 <main+0x8c4>
    dce2:	f641 1047 	movw	r0, #6471	; 0x1947
    dce6:	9505      	str	r5, [sp, #20]
    dce8:	f04f 0800 	mov.w	r8, #0
    dcec:	f2c0 0001 	movt	r0, #1
    dcf0:	e00c      	b.n	dd0c <main+0x76c>
    dcf2:	f04f 38ff 	mov.w	r8, #4294967295	; 0xffffffff
    dcf6:	e0bd      	b.n	de74 <main+0x8d4>
    dcf8:	4288      	cmp	r0, r1
    dcfa:	f040 80b3 	bne.w	de64 <main+0x8c4>
    dcfe:	f241 606e 	movw	r0, #5742	; 0x166e
    dd02:	9505      	str	r5, [sp, #20]
    dd04:	f04f 0803 	mov.w	r8, #3
    dd08:	f2c0 0001 	movt	r0, #1
    dd0c:	f8db 1000 	ldr.w	r1, [fp]
    dd10:	3101      	adds	r1, #1
    dd12:	f8cb 1000 	str.w	r1, [fp]
    dd16:	f001 fcac 	bl	f672 <printf_>
    dd1a:	f240 0400 	movw	r4, #0
    dd1e:	f2c1 0400 	movt	r4, #4096	; 0x1000
            total_errors = -1;
            break;
    }
    if (known_id >= 0)
    {
        for (i = 0; i < default_num_contexts; i++)
    dd22:	68a0      	ldr	r0, [r4, #8]
    dd24:	2800      	cmp	r0, #0
    dd26:	f000 80a2 	beq.w	de6e <main+0x8ce>
        {
            results[i].err = 0;
    dd2a:	f8db 1000 	ldr.w	r1, [fp]
    dd2e:	f641 2bce 	movw	fp, #6862	; 0x1ace
    dd32:	2700      	movs	r7, #0
    dd34:	f2c0 0b01 	movt	fp, #1
    dd38:	2600      	movs	r6, #0
    dd3a:	f04f 0a00 	mov.w	sl, #0
    dd3e:	f04f 0900 	mov.w	r9, #0
    dd42:	e009      	b.n	dd58 <main+0x7b8>
                          i,
                          results[i].crcstate,
                          state_known_crc[known_id]);
                results[i].err++;
            }
            total_errors += results[i].err;
    dd44:	4489      	add	r9, r1
        for (i = 0; i < default_num_contexts; i++)
    dd46:	f10a 0a01 	add.w	sl, sl, #1
    dd4a:	68a1      	ldr	r1, [r4, #8]
    dd4c:	fa1f f68a 	uxth.w	r6, sl
    dd50:	42b1      	cmp	r1, r6
            results[i].err = 0;
    dd52:	4601      	mov	r1, r0
        for (i = 0; i < default_num_contexts; i++)
    dd54:	f240 8081 	bls.w	de5a <main+0x8ba>
            results[i].err = 0;
    dd58:	f240 0230 	movw	r2, #48	; 0x30
    dd5c:	1c48      	adds	r0, r1, #1
    dd5e:	f2c1 0200 	movt	r2, #4096	; 0x1000
    dd62:	6010      	str	r0, [r2, #0]
            if ((results[i].execs & ID_LIST)
    dd64:	f8dd 5828 	ldr.w	r5, [sp, #2088]	; 0x828
            results[i].err = 0;
    dd68:	f8ad 7848 	strh.w	r7, [sp, #2120]	; 0x848
                && (results[i].crclist != list_known_crc[known_id]))
    dd6c:	07ea      	lsls	r2, r5, #31
    dd6e:	d005      	beq.n	dd7c <main+0x7dc>
    dd70:	f8bd 2842 	ldrh.w	r2, [sp, #2114]	; 0x842
    dd74:	f83b 3018 	ldrh.w	r3, [fp, r8, lsl #1]
            if ((results[i].execs & ID_LIST)
    dd78:	429a      	cmp	r2, r3
    dd7a:	d103      	bne.n	dd84 <main+0x7e4>
    dd7c:	2100      	movs	r1, #0
                && (results[i].crcmatrix != matrix_known_crc[known_id]))
    dd7e:	07aa      	lsls	r2, r5, #30
    dd80:	d41e      	bmi.n	ddc0 <main+0x820>
    dd82:	e043      	b.n	de0c <main+0x86c>
                ee_printf("[%u]ERROR! list crc 0x%04x - should be 0x%04x\n",
    dd84:	1c88      	adds	r0, r1, #2
    dd86:	f240 0130 	movw	r1, #48	; 0x30
    dd8a:	f2c1 0100 	movt	r1, #4096	; 0x1000
    dd8e:	6008      	str	r0, [r1, #0]
    dd90:	f641 204b 	movw	r0, #6731	; 0x1a4b
    dd94:	460d      	mov	r5, r1
    dd96:	f2c0 0001 	movt	r0, #1
    dd9a:	4631      	mov	r1, r6
    dd9c:	f001 fc69 	bl	f672 <printf_>
                results[i].err++;
    dda0:	f8bd 0848 	ldrh.w	r0, [sp, #2120]	; 0x848
    dda4:	682a      	ldr	r2, [r5, #0]
    dda6:	1c41      	adds	r1, r0, #1
    dda8:	1c50      	adds	r0, r2, #1
    ddaa:	6028      	str	r0, [r5, #0]
    ddac:	f240 0400 	movw	r4, #0
            if ((results[i].execs & ID_MATRIX)
    ddb0:	f8dd 5828 	ldr.w	r5, [sp, #2088]	; 0x828
    ddb4:	f2c1 0400 	movt	r4, #4096	; 0x1000
                results[i].err++;
    ddb8:	f8ad 1848 	strh.w	r1, [sp, #2120]	; 0x848
                && (results[i].crcmatrix != matrix_known_crc[known_id]))
    ddbc:	07aa      	lsls	r2, r5, #30
    ddbe:	d525      	bpl.n	de0c <main+0x86c>
    ddc0:	f641 23d8 	movw	r3, #6872	; 0x1ad8
    ddc4:	f2c0 0301 	movt	r3, #1
    ddc8:	f8bd 2844 	ldrh.w	r2, [sp, #2116]	; 0x844
    ddcc:	f833 3018 	ldrh.w	r3, [r3, r8, lsl #1]
            if ((results[i].execs & ID_MATRIX)
    ddd0:	429a      	cmp	r2, r3
    ddd2:	d01b      	beq.n	de0c <main+0x86c>
    ddd4:	f240 0130 	movw	r1, #48	; 0x30
                ee_printf("[%u]ERROR! matrix crc 0x%04x - should be 0x%04x\n",
    ddd8:	3001      	adds	r0, #1
    ddda:	f2c1 0100 	movt	r1, #4096	; 0x1000
    ddde:	6008      	str	r0, [r1, #0]
    dde0:	f241 7023 	movw	r0, #5923	; 0x1723
    dde4:	460d      	mov	r5, r1
    dde6:	f2c0 0001 	movt	r0, #1
    ddea:	4631      	mov	r1, r6
    ddec:	f001 fc41 	bl	f672 <printf_>
                results[i].err++;
    ddf0:	f8bd 0848 	ldrh.w	r0, [sp, #2120]	; 0x848
    ddf4:	682a      	ldr	r2, [r5, #0]
    ddf6:	1c41      	adds	r1, r0, #1
    ddf8:	1c50      	adds	r0, r2, #1
    ddfa:	6028      	str	r0, [r5, #0]
    ddfc:	f240 0400 	movw	r4, #0
            if ((results[i].execs & ID_STATE)
    de00:	f8dd 5828 	ldr.w	r5, [sp, #2088]	; 0x828
    de04:	f2c1 0400 	movt	r4, #4096	; 0x1000
                results[i].err++;
    de08:	f8ad 1848 	strh.w	r1, [sp, #2120]	; 0x848
                && (results[i].crcstate != state_known_crc[known_id]))
    de0c:	076a      	lsls	r2, r5, #29
    de0e:	d599      	bpl.n	dd44 <main+0x7a4>
    de10:	f641 23e2 	movw	r3, #6882	; 0x1ae2
    de14:	f2c0 0301 	movt	r3, #1
    de18:	f8bd 2846 	ldrh.w	r2, [sp, #2118]	; 0x846
    de1c:	f833 3018 	ldrh.w	r3, [r3, r8, lsl #1]
            if ((results[i].execs & ID_STATE)
    de20:	429a      	cmp	r2, r3
    de22:	d08f      	beq.n	dd44 <main+0x7a4>
    de24:	f240 0130 	movw	r1, #48	; 0x30
                ee_printf("[%u]ERROR! state crc 0x%04x - should be 0x%04x\n",
    de28:	3001      	adds	r0, #1
    de2a:	f2c1 0100 	movt	r1, #4096	; 0x1000
    de2e:	6008      	str	r0, [r1, #0]
    de30:	f641 1017 	movw	r0, #6423	; 0x1917
    de34:	460d      	mov	r5, r1
    de36:	f2c0 0001 	movt	r0, #1
    de3a:	4631      	mov	r1, r6
    de3c:	f001 fc19 	bl	f672 <printf_>
                results[i].err++;
    de40:	f8bd 0848 	ldrh.w	r0, [sp, #2120]	; 0x848
    de44:	682a      	ldr	r2, [r5, #0]
    de46:	f240 0400 	movw	r4, #0
    de4a:	f2c1 0400 	movt	r4, #4096	; 0x1000
    de4e:	1c41      	adds	r1, r0, #1
    de50:	1c50      	adds	r0, r2, #1
    de52:	6028      	str	r0, [r5, #0]
    de54:	f8ad 1848 	strh.w	r1, [sp, #2120]	; 0x848
    de58:	e774      	b.n	dd44 <main+0x7a4>
    de5a:	f240 0b30 	movw	fp, #48	; 0x30
    de5e:	f2c1 0b00 	movt	fp, #4096	; 0x1000
    de62:	e006      	b.n	de72 <main+0x8d2>
    de64:	f64f 79ff 	movw	r9, #65535	; 0xffff
    de68:	f04f 38ff 	mov.w	r8, #4294967295	; 0xffffffff
    de6c:	e002      	b.n	de74 <main+0x8d4>
    de6e:	f04f 0900 	mov.w	r9, #0
    de72:	9d05      	ldr	r5, [sp, #20]
        }
    }
    total_errors += check_data_types();
    de74:	f8db 0000 	ldr.w	r0, [fp]
    de78:	1c41      	adds	r1, r0, #1
    de7a:	f8cb 1000 	str.w	r1, [fp]
    /* and report results */
    ee_printf("CoreMark Size    : %lu\n", (long unsigned)results[0].size);
    de7e:	3002      	adds	r0, #2
    de80:	f8dd 1820 	ldr.w	r1, [sp, #2080]	; 0x820
    de84:	f8cb 0000 	str.w	r0, [fp]
    de88:	f641 209e 	movw	r0, #6814	; 0x1a9e
    de8c:	f2c0 0001 	movt	r0, #1
    de90:	f001 fbef 	bl	f672 <printf_>
    ee_printf("Total ticks      : %lu\n", (long unsigned)total_time);
    de94:	f8db 0000 	ldr.w	r0, [fp]
    de98:	4629      	mov	r1, r5
    de9a:	3001      	adds	r0, #1
    de9c:	f8cb 0000 	str.w	r0, [fp]
    dea0:	f241 6056 	movw	r0, #5718	; 0x1656
    dea4:	f2c0 0001 	movt	r0, #1
    dea8:	f001 fbe3 	bl	f672 <printf_>
#if HAS_FLOAT
    ee_printf("Total time (secs): %f\n", time_in_secs(total_time));
    deac:	f8db 4000 	ldr.w	r4, [fp]
    deb0:	1c60      	adds	r0, r4, #1
    deb2:	f8cb 0000 	str.w	r0, [fp]
    secs_ret retval = ((secs_ret)ticks) / (secs_ret)EE_TICKS_PER_SEC;
    deb6:	4628      	mov	r0, r5
    deb8:	f7fe fa64 	bl	c384 <__aeabi_ui2d>
    debc:	f241 23d0 	movw	r3, #4816	; 0x12d0
    dec0:	f2c4 1363 	movt	r3, #16739	; 0x4163
    dec4:	2200      	movs	r2, #0
    dec6:	f7fe fc01 	bl	c6cc <__aeabi_ddiv>
    deca:	4607      	mov	r7, r0
    decc:	1ca0      	adds	r0, r4, #2
    dece:	f8cb 0000 	str.w	r0, [fp]
    ded2:	f641 00e8 	movw	r0, #6376	; 0x18e8
    ded6:	f2c0 0001 	movt	r0, #1
    deda:	463a      	mov	r2, r7
    dedc:	460b      	mov	r3, r1
    dede:	460e      	mov	r6, r1
    dee0:	f001 fbc7 	bl	f672 <printf_>
    if (time_in_secs(total_time) > 0)
    dee4:	f8db 4000 	ldr.w	r4, [fp]
    dee8:	4638      	mov	r0, r7
    deea:	1c65      	adds	r5, r4, #1
    deec:	4631      	mov	r1, r6
    deee:	2200      	movs	r2, #0
    def0:	2300      	movs	r3, #0
    def2:	f8cb 5000 	str.w	r5, [fp]
    def6:	f7fe fd19 	bl	c92c <__gedf2>
    defa:	2801      	cmp	r0, #1
    defc:	db1d      	blt.n	df3a <_store_byte+0x8d>
        ee_printf("Iterations/Sec   : %f\n",
                  default_num_contexts * results[0].iterations
    defe:	f240 0000 	movw	r0, #0
    df02:	f2c1 0000 	movt	r0, #4096	; 0x1000
    df06:	6880      	ldr	r0, [r0, #8]
    df08:	f8dd 1824 	ldr.w	r1, [sp, #2084]	; 0x824
    df0c:	4348      	muls	r0, r1
    df0e:	f7fe fa39 	bl	c384 <__aeabi_ui2d>
                      / time_in_secs(total_time));
    df12:	1ca2      	adds	r2, r4, #2
    df14:	f8cb 2000 	str.w	r2, [fp]
    df18:	463a      	mov	r2, r7
    df1a:	4633      	mov	r3, r6
    df1c:	f7fe fbd6 	bl	c6cc <__aeabi_ddiv>
    df20:	4602      	mov	r2, r0
        ee_printf("Iterations/Sec   : %f\n",
    df22:	1ce0      	adds	r0, r4, #3
    df24:	f8cb 0000 	str.w	r0, [fp]
    df28:	f641 20b6 	movw	r0, #6838	; 0x1ab6
    df2c:	f2c0 0001 	movt	r0, #1
    df30:	460b      	mov	r3, r1
    df32:	f001 fb9e 	bl	f672 <printf_>
    if (time_in_secs(total_time) > 0)
        ee_printf("Iterations/Sec   : %d\n",
                  default_num_contexts * results[0].iterations
                      / time_in_secs(total_time));
#endif
    if (time_in_secs(total_time) < 10)
    df36:	f8db 5000 	ldr.w	r5, [fp]
    df3a:	2300      	movs	r3, #0
    df3c:	1c6c      	adds	r4, r5, #1
    df3e:	f2c4 0324 	movt	r3, #16420	; 0x4024
    df42:	4638      	mov	r0, r7
    df44:	4631      	mov	r1, r6
    df46:	2200      	movs	r2, #0
    df48:	f8cb 4000 	str.w	r4, [fp]
    df4c:	f7fe fcf2 	bl	c934 <__ledf2>
    df50:	f1b0 3fff 	cmp.w	r0, #4294967295	; 0xffffffff
    df54:	dc0c      	bgt.n	df70 <_store_byte+0xc3>
    {
        ee_printf(
    df56:	1ca8      	adds	r0, r5, #2
    df58:	f8cb 0000 	str.w	r0, [fp]
    df5c:	f241 70b9 	movw	r0, #6073	; 0x17b9
    df60:	f2c0 0001 	movt	r0, #1
    df64:	f001 fb85 	bl	f672 <printf_>
            "ERROR! Must execute for at least 10 secs for a valid result!\n");
        total_errors++;
    }

    ee_printf("Iterations       : %lu\n",
    df68:	f8db 4000 	ldr.w	r4, [fp]
        total_errors++;
    df6c:	f109 0901 	add.w	r9, r9, #1
    df70:	f240 0000 	movw	r0, #0
    df74:	f2c1 0000 	movt	r0, #4096	; 0x1000
              (long unsigned)default_num_contexts * results[0].iterations);
    df78:	6880      	ldr	r0, [r0, #8]
    df7a:	f8dd 1824 	ldr.w	r1, [sp, #2084]	; 0x824
    df7e:	4341      	muls	r1, r0
    ee_printf("Iterations       : %lu\n",
    df80:	1c60      	adds	r0, r4, #1
    df82:	f8cb 0000 	str.w	r0, [fp]
    df86:	f241 70f7 	movw	r0, #6135	; 0x17f7
    df8a:	f2c0 0001 	movt	r0, #1
    df8e:	f001 fb70 	bl	f672 <printf_>
    ee_printf("Compiler version : %s\n", COMPILER_VERSION);
    df92:	f8db 0000 	ldr.w	r0, [fp]
    df96:	f641 01ff 	movw	r1, #6399	; 0x18ff
    df9a:	3001      	adds	r0, #1
    df9c:	f8cb 0000 	str.w	r0, [fp]
    dfa0:	f641 004e 	movw	r0, #6222	; 0x184e
    dfa4:	f2c0 0001 	movt	r0, #1
    dfa8:	f2c0 0101 	movt	r1, #1
    dfac:	f001 fb61 	bl	f672 <printf_>
    ee_printf("Compiler flags   : %s\n", COMPILER_FLAGS);
    dfb0:	f8db 0000 	ldr.w	r0, [fp]
    dfb4:	f641 1a0f 	movw	sl, #6415	; 0x190f
    dfb8:	3001      	adds	r0, #1
    dfba:	f8cb 0000 	str.w	r0, [fp]
    dfbe:	f641 0065 	movw	r0, #6245	; 0x1865
    dfc2:	f2c0 0a01 	movt	sl, #1
    dfc6:	f2c0 0001 	movt	r0, #1
    dfca:	4651      	mov	r1, sl
    dfcc:	f001 fb51 	bl	f672 <printf_>
#if (MULTITHREAD > 1)
    ee_printf("Parallel %s : %d\n", PARALLEL_METHOD, default_num_contexts);
#endif
    ee_printf("Memory location  : %s\n", MEM_LOCATION);
    dfd0:	f8db 0000 	ldr.w	r0, [fp]
    dfd4:	f241 71aa 	movw	r1, #6058	; 0x17aa
    dfd8:	3001      	adds	r0, #1
    dfda:	f8cb 0000 	str.w	r0, [fp]
    dfde:	f641 207a 	movw	r0, #6778	; 0x1a7a
    dfe2:	f2c0 0001 	movt	r0, #1
    dfe6:	f2c0 0101 	movt	r1, #1
    dfea:	f001 fb42 	bl	f672 <printf_>
    /* output for verification */
    ee_printf("seedcrc          : 0x%04x\n", seedcrc);
    dfee:	f8db 0000 	ldr.w	r0, [fp]
    dff2:	3001      	adds	r0, #1
    dff4:	f8cb 0000 	str.w	r0, [fp]
    dff8:	f641 0029 	movw	r0, #6185	; 0x1829
    dffc:	9906      	ldr	r1, [sp, #24]
    dffe:	f2c0 0001 	movt	r0, #1
    e002:	f001 fb36 	bl	f672 <printf_>
    if (results[0].execs & ID_LIST)
        for (i = 0; i < default_num_contexts; i++)
    e006:	f240 0000 	movw	r0, #0
    if (results[0].execs & ID_LIST)
    e00a:	f8dd 1828 	ldr.w	r1, [sp, #2088]	; 0x828
        for (i = 0; i < default_num_contexts; i++)
    e00e:	f2c1 0000 	movt	r0, #4096	; 0x1000
    e012:	6880      	ldr	r0, [r0, #8]
    if (results[0].execs & ID_LIST)
    e014:	07ca      	lsls	r2, r1, #31
    e016:	bf18      	it	ne
    e018:	2800      	cmpne	r0, #0
    e01a:	f040 80c2 	bne.w	e1a2 <_store_byte+0x2f5>
            ee_printf("[%d]crclist       : 0x%04x\n", i, results[i].crclist);
    if (results[0].execs & ID_MATRIX)
    e01e:	078a      	lsls	r2, r1, #30
    e020:	d51b      	bpl.n	e05a <_store_byte+0x1ad>
    e022:	b1d0      	cbz	r0, e05a <_store_byte+0x1ad>
    e024:	f241 7407 	movw	r4, #5895	; 0x1707
    e028:	2100      	movs	r1, #0
    e02a:	f2c0 0401 	movt	r4, #1
    e02e:	2500      	movs	r5, #0
        for (i = 0; i < default_num_contexts; i++)
            ee_printf("[%d]crcmatrix     : 0x%04x\n", i, results[i].crcmatrix);
    e030:	f8db 0000 	ldr.w	r0, [fp]
    e034:	f8bd 2844 	ldrh.w	r2, [sp, #2116]	; 0x844
    e038:	3001      	adds	r0, #1
    e03a:	f8cb 0000 	str.w	r0, [fp]
    e03e:	4620      	mov	r0, r4
    e040:	f001 fb17 	bl	f672 <printf_>
        for (i = 0; i < default_num_contexts; i++)
    e044:	f240 0000 	movw	r0, #0
    e048:	f2c1 0000 	movt	r0, #4096	; 0x1000
    e04c:	3501      	adds	r5, #1
    e04e:	6880      	ldr	r0, [r0, #8]
    e050:	b2a9      	uxth	r1, r5
    e052:	4288      	cmp	r0, r1
    e054:	d8ec      	bhi.n	e030 <_store_byte+0x183>
    if (results[0].execs & ID_STATE)
    e056:	f8dd 1828 	ldr.w	r1, [sp, #2088]	; 0x828
    e05a:	0749      	lsls	r1, r1, #29
    e05c:	d519      	bpl.n	e092 <_store_byte+0x1e5>
    e05e:	b1c0      	cbz	r0, e092 <_store_byte+0x1e5>
    e060:	f641 14a7 	movw	r4, #6567	; 0x19a7
    e064:	2100      	movs	r1, #0
    e066:	f2c0 0401 	movt	r4, #1
    e06a:	2500      	movs	r5, #0
        for (i = 0; i < default_num_contexts; i++)
            ee_printf("[%d]crcstate      : 0x%04x\n", i, results[i].crcstate);
    e06c:	f8db 0000 	ldr.w	r0, [fp]
    e070:	f8bd 2846 	ldrh.w	r2, [sp, #2118]	; 0x846
    e074:	3001      	adds	r0, #1
    e076:	f8cb 0000 	str.w	r0, [fp]
    e07a:	4620      	mov	r0, r4
    e07c:	f001 faf9 	bl	f672 <printf_>
        for (i = 0; i < default_num_contexts; i++)
    e080:	f240 0000 	movw	r0, #0
    e084:	f2c1 0000 	movt	r0, #4096	; 0x1000
    e088:	3501      	adds	r5, #1
    e08a:	6880      	ldr	r0, [r0, #8]
    e08c:	b2a9      	uxth	r1, r5
    e08e:	4288      	cmp	r0, r1
    e090:	d8ec      	bhi.n	e06c <_store_byte+0x1bf>
    for (i = 0; i < default_num_contexts; i++)
    e092:	b1c0      	cbz	r0, e0c6 <_store_byte+0x219>
    e094:	f641 14e8 	movw	r4, #6632	; 0x19e8
    e098:	2100      	movs	r1, #0
    e09a:	f2c0 0401 	movt	r4, #1
    e09e:	2500      	movs	r5, #0
        ee_printf("[%d]crcfinal      : 0x%04x\n", i, results[i].crc);
    e0a0:	f8db 0000 	ldr.w	r0, [fp]
    e0a4:	f8bd 2840 	ldrh.w	r2, [sp, #2112]	; 0x840
    e0a8:	3001      	adds	r0, #1
    e0aa:	f8cb 0000 	str.w	r0, [fp]
    e0ae:	4620      	mov	r0, r4
    e0b0:	f001 fadf 	bl	f672 <printf_>
    for (i = 0; i < default_num_contexts; i++)
    e0b4:	f240 0000 	movw	r0, #0
    e0b8:	f2c1 0000 	movt	r0, #4096	; 0x1000
    e0bc:	3501      	adds	r5, #1
    e0be:	6880      	ldr	r0, [r0, #8]
    e0c0:	b2a9      	uxth	r1, r5
    e0c2:	4288      	cmp	r0, r1
    e0c4:	d8ec      	bhi.n	e0a0 <_store_byte+0x1f3>
    if (total_errors == 0)
    e0c6:	ea5f 4009 	movs.w	r0, r9, lsl #16
    e0ca:	d012      	beq.n	e0f2 <_store_byte+0x245>
    e0cc:	f8db 0000 	ldr.w	r0, [fp]
#endif
            ee_printf("\n");
        }
#endif
    }
    if (total_errors > 0)
    e0d0:	fa0f f189 	sxth.w	r1, r9
    e0d4:	3001      	adds	r0, #1
    e0d6:	f8cb 0000 	str.w	r0, [fp]
    e0da:	f241 609b 	movw	r0, #5787	; 0x169b
    e0de:	f641 020f 	movw	r2, #6159	; 0x180f
    e0e2:	f2c0 0001 	movt	r0, #1
    e0e6:	f2c0 0201 	movt	r2, #1
    e0ea:	2900      	cmp	r1, #0
    e0ec:	bfc8      	it	gt
    e0ee:	4610      	movgt	r0, r2
    e0f0:	e04a      	b.n	e188 <_store_byte+0x2db>
        ee_printf(
    e0f2:	f8db 0000 	ldr.w	r0, [fp]
    e0f6:	3001      	adds	r0, #1
    e0f8:	f8cb 0000 	str.w	r0, [fp]
    e0fc:	f641 009f 	movw	r0, #6303	; 0x189f
    e100:	f2c0 0001 	movt	r0, #1
    e104:	f001 fab5 	bl	f672 <printf_>
        if (known_id == 3)
    e108:	f1b8 0f03 	cmp.w	r8, #3
    e10c:	d13e      	bne.n	e18c <_store_byte+0x2df>
                      default_num_contexts * results[0].iterations
    e10e:	f240 0000 	movw	r0, #0
    e112:	f2c1 0000 	movt	r0, #4096	; 0x1000
    e116:	6880      	ldr	r0, [r0, #8]
    e118:	f8dd 1824 	ldr.w	r1, [sp, #2084]	; 0x824
    e11c:	4348      	muls	r0, r1
    e11e:	f7fe f931 	bl	c384 <__aeabi_ui2d>
                          / time_in_secs(total_time),
    e122:	f8db 4000 	ldr.w	r4, [fp]
    e126:	4633      	mov	r3, r6
    e128:	1c62      	adds	r2, r4, #1
    e12a:	f8cb 2000 	str.w	r2, [fp]
    e12e:	463a      	mov	r2, r7
    e130:	f7fe facc 	bl	c6cc <__aeabi_ddiv>
    e134:	4602      	mov	r2, r0
            ee_printf("CoreMark 1.0 : %f / %s %s",
    e136:	1ca0      	adds	r0, r4, #2
    e138:	f8cb 0000 	str.w	r0, [fp]
    e13c:	f641 00ff 	movw	r0, #6399	; 0x18ff
    e140:	f2c0 0001 	movt	r0, #1
    e144:	9000      	str	r0, [sp, #0]
    e146:	f641 007c 	movw	r0, #6268	; 0x187c
    e14a:	f2c0 0001 	movt	r0, #1
    e14e:	460b      	mov	r3, r1
    e150:	f8cd a004 	str.w	sl, [sp, #4]
    e154:	f001 fa8d 	bl	f672 <printf_>
            ee_printf(" / %s", MEM_LOCATION);
    e158:	f8db 0000 	ldr.w	r0, [fp]
    e15c:	f241 71aa 	movw	r1, #6058	; 0x17aa
    e160:	3001      	adds	r0, #1
    e162:	f8cb 0000 	str.w	r0, [fp]
    e166:	f641 1011 	movw	r0, #6417	; 0x1911
    e16a:	f2c0 0001 	movt	r0, #1
    e16e:	f2c0 0101 	movt	r1, #1
    e172:	f001 fa7e 	bl	f672 <printf_>
            ee_printf("\n");
    e176:	f8db 0000 	ldr.w	r0, [fp]
    e17a:	3001      	adds	r0, #1
    e17c:	f8cb 0000 	str.w	r0, [fp]
    e180:	f641 10a0 	movw	r0, #6560	; 0x19a0
    e184:	f2c0 0001 	movt	r0, #1
    e188:	f001 fa73 	bl	f672 <printf_>
#if (MEM_METHOD == MEM_MALLOC)
    for (i = 0; i < MULTITHREAD; i++)
        portable_free(results[i].memblock[0]);
#endif
    /* And last call any target specific code for finalizing */
    portable_fini(&(results[0].port));
    e18c:	f8db 0000 	ldr.w	r0, [fp]
    e190:	1c41      	adds	r1, r0, #1

    return MAIN_RETURN_VAL;
    e192:	2000      	movs	r0, #0
    portable_fini(&(results[0].port));
    e194:	f8cb 1000 	str.w	r1, [fp]
    return MAIN_RETURN_VAL;
    e198:	f50d 6d04 	add.w	sp, sp, #2112	; 0x840
    e19c:	b003      	add	sp, #12
    e19e:	e8bd 8ff0 	ldmia.w	sp!, {r4, r5, r6, r7, r8, r9, sl, fp, pc}
    e1a2:	f641 14cc 	movw	r4, #6604	; 0x19cc
    e1a6:	2100      	movs	r1, #0
    e1a8:	f2c0 0401 	movt	r4, #1
    e1ac:	2500      	movs	r5, #0
    e1ae:	bf00      	nop
            ee_printf("[%d]crclist       : 0x%04x\n", i, results[i].crclist);
    e1b0:	f8db 0000 	ldr.w	r0, [fp]
    e1b4:	f8bd 2842 	ldrh.w	r2, [sp, #2114]	; 0x842
    e1b8:	3001      	adds	r0, #1
    e1ba:	f8cb 0000 	str.w	r0, [fp]
    e1be:	4620      	mov	r0, r4
    e1c0:	f001 fa57 	bl	f672 <printf_>
        for (i = 0; i < default_num_contexts; i++)
    e1c4:	f240 0000 	movw	r0, #0
    e1c8:	f2c1 0000 	movt	r0, #4096	; 0x1000
    e1cc:	3501      	adds	r5, #1
    e1ce:	6880      	ldr	r0, [r0, #8]
    e1d0:	b2a9      	uxth	r1, r5
    e1d2:	4288      	cmp	r0, r1
    e1d4:	d8ec      	bhi.n	e1b0 <_store_byte+0x303>
    if (results[0].execs & ID_MATRIX)
    e1d6:	f8dd 1828 	ldr.w	r1, [sp, #2088]	; 0x828
    e1da:	078a      	lsls	r2, r1, #30
    e1dc:	f53f af21 	bmi.w	e022 <_store_byte+0x175>
    e1e0:	e73b      	b.n	e05a <_store_byte+0x1ad>
    e1e2:	d4d4      	bmi.n	e18e <_store_byte+0x2e1>

0000e1e4 <matrix_test>:
{
    e1e4:	e92d 4ff0 	stmdb	sp!, {r4, r5, r6, r7, r8, r9, sl, fp, lr}
    e1e8:	b0b5      	sub	sp, #212	; 0xd4
    matrix_add_const(N, A, val); /* make sure data changes  */
    e1ea:	f240 0e30 	movw	lr, #48	; 0x30
    e1ee:	4688      	mov	r8, r1
    e1f0:	9e3e      	ldr	r6, [sp, #248]	; 0xf8
    e1f2:	f24f 0100 	movw	r1, #61440	; 0xf000
    e1f6:	f2c1 0e00 	movt	lr, #4096	; 0x1000
    e1fa:	469a      	mov	sl, r3
    e1fc:	f6cf 71ff 	movt	r1, #65535	; 0xffff
    e200:	f8de 3000 	ldr.w	r3, [lr]
    MATDAT clipval = matrix_big(val);
    e204:	4331      	orrs	r1, r6
    matrix_add_const(N, A, val); /* make sure data changes  */
    e206:	912e      	str	r1, [sp, #184]	; 0xb8
    e208:	1c59      	adds	r1, r3, #1
*/
void
matrix_add_const(ee_u32 N, MATDAT *A, MATDAT val)
{
    ee_u32 i, j;
    for (i = 0; i < N; i++)
    e20a:	2800      	cmp	r0, #0
    matrix_add_const(N, A, val); /* make sure data changes  */
    e20c:	f8ce 1000 	str.w	r1, [lr]
    e210:	9034      	str	r0, [sp, #208]	; 0xd0
    e212:	f8cd 80a8 	str.w	r8, [sp, #168]	; 0xa8
    e216:	e9cd a228 	strd	sl, r2, [sp, #160]	; 0xa0
    for (i = 0; i < N; i++)
    e21a:	f000 813d 	beq.w	e498 <matrix_test+0x2b4>
    e21e:	f000 0503 	and.w	r5, r0, #3
    e222:	1e41      	subs	r1, r0, #1
    e224:	eba0 0a05 	sub.w	sl, r0, r5
    e228:	f1a2 0e02 	sub.w	lr, r2, #2
    e22c:	ea4f 0c40 	mov.w	ip, r0, lsl #1
    e230:	f04f 0800 	mov.w	r8, #0
    e234:	4691      	mov	r9, r2
    e236:	911a      	str	r1, [sp, #104]	; 0x68
    e238:	f8cd e000 	str.w	lr, [sp]
    e23c:	9519      	str	r5, [sp, #100]	; 0x64
    {
        for (j = 0; j < N; j++)
    e23e:	981a      	ldr	r0, [sp, #104]	; 0x68
    e240:	2400      	movs	r4, #0
    e242:	2803      	cmp	r0, #3
    e244:	d32e      	bcc.n	e2a4 <matrix_test+0xc0>
    e246:	e00a      	b.n	e25e <matrix_test+0x7a>
    for (i = 0; i < N; i++)
    e248:	9834      	ldr	r0, [sp, #208]	; 0xd0
    e24a:	f108 0801 	add.w	r8, r8, #1
    e24e:	44e6      	add	lr, ip
    e250:	4580      	cmp	r8, r0
    e252:	44e1      	add	r9, ip
    e254:	d057      	beq.n	e306 <matrix_test+0x122>
        for (j = 0; j < N; j++)
    e256:	981a      	ldr	r0, [sp, #104]	; 0x68
    e258:	2400      	movs	r4, #0
    e25a:	2803      	cmp	r0, #3
    e25c:	d322      	bcc.n	e2a4 <matrix_test+0xc0>
    e25e:	f240 0530 	movw	r5, #48	; 0x30
    e262:	4670      	mov	r0, lr
    e264:	f2c1 0500 	movt	r5, #4096	; 0x1000
        {
            A[i * N + j] += val;
    e268:	8847      	ldrh	r7, [r0, #2]
    e26a:	6829      	ldr	r1, [r5, #0]
    e26c:	4437      	add	r7, r6
    e26e:	3101      	adds	r1, #1
    e270:	6029      	str	r1, [r5, #0]
    e272:	8047      	strh	r7, [r0, #2]
    e274:	eb09 0144 	add.w	r1, r9, r4, lsl #1
    e278:	884f      	ldrh	r7, [r1, #2]
    e27a:	682b      	ldr	r3, [r5, #0]
    e27c:	4437      	add	r7, r6
    e27e:	3301      	adds	r3, #1
    e280:	602b      	str	r3, [r5, #0]
    e282:	804f      	strh	r7, [r1, #2]
    e284:	888b      	ldrh	r3, [r1, #4]
    e286:	682f      	ldr	r7, [r5, #0]
    e288:	4433      	add	r3, r6
    e28a:	3701      	adds	r7, #1
    e28c:	602f      	str	r7, [r5, #0]
    e28e:	808b      	strh	r3, [r1, #4]
    e290:	f830 1f08 	ldrh.w	r1, [r0, #8]!
    e294:	682b      	ldr	r3, [r5, #0]
        for (j = 0; j < N; j++)
    e296:	3404      	adds	r4, #4
            A[i * N + j] += val;
    e298:	4431      	add	r1, r6
    e29a:	3301      	adds	r3, #1
        for (j = 0; j < N; j++)
    e29c:	45a2      	cmp	sl, r4
            A[i * N + j] += val;
    e29e:	602b      	str	r3, [r5, #0]
    e2a0:	8001      	strh	r1, [r0, #0]
        for (j = 0; j < N; j++)
    e2a2:	d1e1      	bne.n	e268 <matrix_test+0x84>
    e2a4:	9d19      	ldr	r5, [sp, #100]	; 0x64
    e2a6:	2d00      	cmp	r5, #0
    e2a8:	d0ce      	beq.n	e248 <matrix_test+0x64>
    e2aa:	9834      	ldr	r0, [sp, #208]	; 0xd0
    e2ac:	f240 0330 	movw	r3, #48	; 0x30
    e2b0:	fb08 f000 	mul.w	r0, r8, r0
            A[i * N + j] += val;
    e2b4:	4420      	add	r0, r4
    e2b6:	f2c1 0300 	movt	r3, #4096	; 0x1000
    e2ba:	f832 1010 	ldrh.w	r1, [r2, r0, lsl #1]
    e2be:	461c      	mov	r4, r3
    e2c0:	681b      	ldr	r3, [r3, #0]
    e2c2:	4431      	add	r1, r6
    e2c4:	3301      	adds	r3, #1
        for (j = 0; j < N; j++)
    e2c6:	2d01      	cmp	r5, #1
            A[i * N + j] += val;
    e2c8:	6023      	str	r3, [r4, #0]
    e2ca:	f822 1010 	strh.w	r1, [r2, r0, lsl #1]
        for (j = 0; j < N; j++)
    e2ce:	d0bb      	beq.n	e248 <matrix_test+0x64>
    e2d0:	f240 0330 	movw	r3, #48	; 0x30
            A[i * N + j] += val;
    e2d4:	eb02 0040 	add.w	r0, r2, r0, lsl #1
    e2d8:	f2c1 0300 	movt	r3, #4096	; 0x1000
    e2dc:	8841      	ldrh	r1, [r0, #2]
    e2de:	461c      	mov	r4, r3
    e2e0:	681b      	ldr	r3, [r3, #0]
    e2e2:	4431      	add	r1, r6
    e2e4:	3301      	adds	r3, #1
        for (j = 0; j < N; j++)
    e2e6:	2d02      	cmp	r5, #2
            A[i * N + j] += val;
    e2e8:	6023      	str	r3, [r4, #0]
    e2ea:	8041      	strh	r1, [r0, #2]
        for (j = 0; j < N; j++)
    e2ec:	d0ac      	beq.n	e248 <matrix_test+0x64>
    e2ee:	f240 0330 	movw	r3, #48	; 0x30
    e2f2:	f2c1 0300 	movt	r3, #4096	; 0x1000
            A[i * N + j] += val;
    e2f6:	8881      	ldrh	r1, [r0, #4]
    e2f8:	461c      	mov	r4, r3
    e2fa:	681b      	ldr	r3, [r3, #0]
    e2fc:	4431      	add	r1, r6
    e2fe:	3301      	adds	r3, #1
    e300:	6023      	str	r3, [r4, #0]
    e302:	8081      	strh	r1, [r0, #4]
    e304:	e7a0      	b.n	e248 <matrix_test+0x64>
    e306:	f240 0030 	movw	r0, #48	; 0x30
    e30a:	f2c1 0000 	movt	r0, #4096	; 0x1000
    e30e:	4601      	mov	r1, r0
    matrix_mul_const(N, C, A, val);
    e310:	6800      	ldr	r0, [r0, #0]
    e312:	3001      	adds	r0, #1
    e314:	6008      	str	r0, [r1, #0]
    for (i = 0; i < N; i++)
    e316:	981a      	ldr	r0, [sp, #104]	; 0x68
    e318:	9934      	ldr	r1, [sp, #208]	; 0xd0
    e31a:	2800      	cmp	r0, #0
    e31c:	f001 0001 	and.w	r0, r1, #1
    e320:	9001      	str	r0, [sp, #4]
    e322:	f000 80c2 	beq.w	e4aa <matrix_test+0x2c6>
    e326:	1a0b      	subs	r3, r1, r0
    e328:	982a      	ldr	r0, [sp, #168]	; 0xa8
    e32a:	00cc      	lsls	r4, r1, #3
    e32c:	f1a0 0710 	sub.w	r7, r0, #16
    e330:	eb00 0081 	add.w	r0, r0, r1, lsl #2
    e334:	f1a0 0e08 	sub.w	lr, r0, #8
    e338:	eb02 0041 	add.w	r0, r2, r1, lsl #1
    e33c:	f8dd 9000 	ldr.w	r9, [sp]
    e340:	940b      	str	r4, [sp, #44]	; 0x2c
    e342:	008c      	lsls	r4, r1, #2
    e344:	4639      	mov	r1, r7
    e346:	4690      	mov	r8, r2
    e348:	f1a0 0b08 	sub.w	fp, r0, #8
    e34c:	f04f 0c00 	mov.w	ip, #0
    e350:	940a      	str	r4, [sp, #40]	; 0x28
        for (j = 0; j < N; j++)
    e352:	981a      	ldr	r0, [sp, #104]	; 0x68
    e354:	e9cd 1313 	strd	r1, r3, [sp, #76]	; 0x4c
    e358:	2803      	cmp	r0, #3
    e35a:	d219      	bcs.n	e390 <matrix_test+0x1ac>
    e35c:	e013      	b.n	e386 <matrix_test+0x1a2>
    e35e:	bf00      	nop
    e360:	9b14      	ldr	r3, [sp, #80]	; 0x50
    e362:	9913      	ldr	r1, [sp, #76]	; 0x4c
    e364:	980b      	ldr	r0, [sp, #44]	; 0x2c
    e366:	9a0a      	ldr	r2, [sp, #40]	; 0x28
    for (i = 0; i < N; i++)
    e368:	f10c 0c02 	add.w	ip, ip, #2
    e36c:	3b02      	subs	r3, #2
    e36e:	4401      	add	r1, r0
    e370:	4491      	add	r9, r2
    e372:	4490      	add	r8, r2
    e374:	4486      	add	lr, r0
    e376:	4493      	add	fp, r2
    e378:	f000 8099 	beq.w	e4ae <matrix_test+0x2ca>
        for (j = 0; j < N; j++)
    e37c:	981a      	ldr	r0, [sp, #104]	; 0x68
    e37e:	e9cd 1313 	strd	r1, r3, [sp, #76]	; 0x4c
    e382:	2803      	cmp	r0, #3
    e384:	d204      	bcs.n	e390 <matrix_test+0x1ac>
    e386:	464c      	mov	r4, r9
    e388:	2200      	movs	r2, #0
    e38a:	b9f5      	cbnz	r5, e3ca <matrix_test+0x1e6>
    e38c:	e03c      	b.n	e408 <matrix_test+0x224>
    e38e:	bf00      	nop
    e390:	2200      	movs	r2, #0
    e392:	464c      	mov	r4, r9
    e394:	464f      	mov	r7, r9
    e396:	4608      	mov	r0, r1
            C[i * N + j] = (MATRES)A[i * N + j] * (MATRES)val;
    e398:	f937 3f08 	ldrsh.w	r3, [r7, #8]!
    e39c:	f937 9c06 	ldrsh.w	r9, [r7, #-6]
    e3a0:	4373      	muls	r3, r6
    e3a2:	fb09 f106 	mul.w	r1, r9, r6
    e3a6:	f840 1f10 	str.w	r1, [r0, #16]!
    e3aa:	eb08 0142 	add.w	r1, r8, r2, lsl #1
    e3ae:	f9b1 9002 	ldrsh.w	r9, [r1, #2]
    e3b2:	f9b1 1004 	ldrsh.w	r1, [r1, #4]
        for (j = 0; j < N; j++)
    e3b6:	3204      	adds	r2, #4
            C[i * N + j] = (MATRES)A[i * N + j] * (MATRES)val;
    e3b8:	fb09 f906 	mul.w	r9, r9, r6
    e3bc:	4371      	muls	r1, r6
        for (j = 0; j < N; j++)
    e3be:	4592      	cmp	sl, r2
            C[i * N + j] = (MATRES)A[i * N + j] * (MATRES)val;
    e3c0:	e9c0 9101 	strd	r9, r1, [r0, #4]
    e3c4:	60c3      	str	r3, [r0, #12]
        for (j = 0; j < N; j++)
    e3c6:	d1e7      	bne.n	e398 <matrix_test+0x1b4>
    e3c8:	b1f5      	cbz	r5, e408 <matrix_test+0x224>
    e3ca:	9834      	ldr	r0, [sp, #208]	; 0xd0
            C[i * N + j] = (MATRES)A[i * N + j] * (MATRES)val;
    e3cc:	9929      	ldr	r1, [sp, #164]	; 0xa4
    e3ce:	fb0c f000 	mul.w	r0, ip, r0
    e3d2:	4410      	add	r0, r2
    e3d4:	f931 1010 	ldrsh.w	r1, [r1, r0, lsl #1]
    e3d8:	9a2a      	ldr	r2, [sp, #168]	; 0xa8
    e3da:	4371      	muls	r1, r6
        for (j = 0; j < N; j++)
    e3dc:	2d01      	cmp	r5, #1
            C[i * N + j] = (MATRES)A[i * N + j] * (MATRES)val;
    e3de:	f842 1020 	str.w	r1, [r2, r0, lsl #2]
        for (j = 0; j < N; j++)
    e3e2:	d011      	beq.n	e408 <matrix_test+0x224>
            C[i * N + j] = (MATRES)A[i * N + j] * (MATRES)val;
    e3e4:	9a29      	ldr	r2, [sp, #164]	; 0xa4
    e3e6:	1c41      	adds	r1, r0, #1
    e3e8:	f932 2011 	ldrsh.w	r2, [r2, r1, lsl #1]
    e3ec:	9b2a      	ldr	r3, [sp, #168]	; 0xa8
    e3ee:	4372      	muls	r2, r6
        for (j = 0; j < N; j++)
    e3f0:	2d02      	cmp	r5, #2
            C[i * N + j] = (MATRES)A[i * N + j] * (MATRES)val;
    e3f2:	f843 2021 	str.w	r2, [r3, r1, lsl #2]
        for (j = 0; j < N; j++)
    e3f6:	d007      	beq.n	e408 <matrix_test+0x224>
            C[i * N + j] = (MATRES)A[i * N + j] * (MATRES)val;
    e3f8:	9929      	ldr	r1, [sp, #164]	; 0xa4
    e3fa:	3002      	adds	r0, #2
    e3fc:	f931 1010 	ldrsh.w	r1, [r1, r0, lsl #1]
    e400:	9a2a      	ldr	r2, [sp, #168]	; 0xa8
    e402:	4371      	muls	r1, r6
    e404:	f842 1020 	str.w	r1, [r2, r0, lsl #2]
        for (j = 0; j < N; j++)
    e408:	981a      	ldr	r0, [sp, #104]	; 0x68
    e40a:	2200      	movs	r2, #0
    e40c:	2803      	cmp	r0, #3
    e40e:	d203      	bcs.n	e418 <matrix_test+0x234>
    e410:	46a1      	mov	r9, r4
    e412:	9d19      	ldr	r5, [sp, #100]	; 0x64
    e414:	b9ed      	cbnz	r5, e452 <matrix_test+0x26e>
    e416:	e7a3      	b.n	e360 <matrix_test+0x17c>
    e418:	465f      	mov	r7, fp
    e41a:	4670      	mov	r0, lr
    e41c:	46a1      	mov	r9, r4
    e41e:	bf00      	nop
            C[i * N + j] = (MATRES)A[i * N + j] * (MATRES)val;
    e420:	f937 1f08 	ldrsh.w	r1, [r7, #8]!
        for (j = 0; j < N; j++)
    e424:	3204      	adds	r2, #4
            C[i * N + j] = (MATRES)A[i * N + j] * (MATRES)val;
    e426:	f9b7 4004 	ldrsh.w	r4, [r7, #4]
    e42a:	f9b7 3002 	ldrsh.w	r3, [r7, #2]
    e42e:	f9b7 5006 	ldrsh.w	r5, [r7, #6]
    e432:	4374      	muls	r4, r6
    e434:	4371      	muls	r1, r6
    e436:	f840 4f10 	str.w	r4, [r0, #16]!
    e43a:	4373      	muls	r3, r6
    e43c:	e940 1302 	strd	r1, r3, [r0, #-8]
    e440:	fb05 f106 	mul.w	r1, r5, r6
        for (j = 0; j < N; j++)
    e444:	4592      	cmp	sl, r2
            C[i * N + j] = (MATRES)A[i * N + j] * (MATRES)val;
    e446:	6041      	str	r1, [r0, #4]
        for (j = 0; j < N; j++)
    e448:	d1ea      	bne.n	e420 <matrix_test+0x23c>
    e44a:	9d19      	ldr	r5, [sp, #100]	; 0x64
    e44c:	2d00      	cmp	r5, #0
    e44e:	f43f af87 	beq.w	e360 <matrix_test+0x17c>
    e452:	9934      	ldr	r1, [sp, #208]	; 0xd0
    e454:	f04c 0001 	orr.w	r0, ip, #1
    e458:	4348      	muls	r0, r1
            C[i * N + j] = (MATRES)A[i * N + j] * (MATRES)val;
    e45a:	9929      	ldr	r1, [sp, #164]	; 0xa4
    e45c:	4410      	add	r0, r2
    e45e:	f931 1010 	ldrsh.w	r1, [r1, r0, lsl #1]
    e462:	9a2a      	ldr	r2, [sp, #168]	; 0xa8
    e464:	4371      	muls	r1, r6
        for (j = 0; j < N; j++)
    e466:	2d01      	cmp	r5, #1
            C[i * N + j] = (MATRES)A[i * N + j] * (MATRES)val;
    e468:	f842 1020 	str.w	r1, [r2, r0, lsl #2]
        for (j = 0; j < N; j++)
    e46c:	f43f af78 	beq.w	e360 <matrix_test+0x17c>
            C[i * N + j] = (MATRES)A[i * N + j] * (MATRES)val;
    e470:	9a29      	ldr	r2, [sp, #164]	; 0xa4
    e472:	1c41      	adds	r1, r0, #1
    e474:	f932 2011 	ldrsh.w	r2, [r2, r1, lsl #1]
    e478:	9b2a      	ldr	r3, [sp, #168]	; 0xa8
    e47a:	4372      	muls	r2, r6
        for (j = 0; j < N; j++)
    e47c:	2d02      	cmp	r5, #2
            C[i * N + j] = (MATRES)A[i * N + j] * (MATRES)val;
    e47e:	f843 2021 	str.w	r2, [r3, r1, lsl #2]
        for (j = 0; j < N; j++)
    e482:	f43f af6d 	beq.w	e360 <matrix_test+0x17c>
            C[i * N + j] = (MATRES)A[i * N + j] * (MATRES)val;
    e486:	9929      	ldr	r1, [sp, #164]	; 0xa4
    e488:	3002      	adds	r0, #2
    e48a:	f931 1010 	ldrsh.w	r1, [r1, r0, lsl #1]
    e48e:	9a2a      	ldr	r2, [sp, #168]	; 0xa8
    e490:	4371      	muls	r1, r6
    e492:	f842 1020 	str.w	r1, [r2, r0, lsl #2]
    e496:	e763      	b.n	e360 <matrix_test+0x17c>
    matrix_mul_const(N, C, A, val);
    e498:	1c99      	adds	r1, r3, #2
    e49a:	f8ce 1000 	str.w	r1, [lr]
    crc = crc16(matrix_sum(N, C, clipval), crc);
    e49e:	1cd9      	adds	r1, r3, #3
    e4a0:	f8ce 1000 	str.w	r1, [lr]
    e4a4:	f04f 0b00 	mov.w	fp, #0
    e4a8:	e0eb      	b.n	e682 <matrix_test+0x49e>
    e4aa:	f04f 0c00 	mov.w	ip, #0
        for (j = 0; j < N; j++)
    e4ae:	9801      	ldr	r0, [sp, #4]
    e4b0:	e9dd 4329 	ldrd	r4, r3, [sp, #164]	; 0xa4
    e4b4:	2800      	cmp	r0, #0
    e4b6:	d046      	beq.n	e546 <matrix_test+0x362>
    e4b8:	981a      	ldr	r0, [sp, #104]	; 0x68
    e4ba:	2803      	cmp	r0, #3
    e4bc:	9834      	ldr	r0, [sp, #208]	; 0xd0
    e4be:	fb0c fc00 	mul.w	ip, ip, r0
    e4c2:	d203      	bcs.n	e4cc <matrix_test+0x2e8>
    e4c4:	2100      	movs	r1, #0
    e4c6:	9b2a      	ldr	r3, [sp, #168]	; 0xa8
    e4c8:	bb25      	cbnz	r5, e514 <matrix_test+0x330>
    e4ca:	e03c      	b.n	e546 <matrix_test+0x362>
    e4cc:	eb03 018c 	add.w	r1, r3, ip, lsl #2
    e4d0:	eb04 0e4c 	add.w	lr, r4, ip, lsl #1
    e4d4:	f1a1 0210 	sub.w	r2, r1, #16
    e4d8:	f1ae 0702 	sub.w	r7, lr, #2
    e4dc:	2100      	movs	r1, #0
    e4de:	bf00      	nop
            C[i * N + j] = (MATRES)A[i * N + j] * (MATRES)val;
    e4e0:	f937 8f08 	ldrsh.w	r8, [r7, #8]!
    e4e4:	f937 3c06 	ldrsh.w	r3, [r7, #-6]
    e4e8:	fb08 f806 	mul.w	r8, r8, r6
    e4ec:	4373      	muls	r3, r6
    e4ee:	f842 3f10 	str.w	r3, [r2, #16]!
    e4f2:	eb0e 0341 	add.w	r3, lr, r1, lsl #1
    e4f6:	f9b3 0002 	ldrsh.w	r0, [r3, #2]
    e4fa:	f9b3 3004 	ldrsh.w	r3, [r3, #4]
        for (j = 0; j < N; j++)
    e4fe:	3104      	adds	r1, #4
            C[i * N + j] = (MATRES)A[i * N + j] * (MATRES)val;
    e500:	4370      	muls	r0, r6
    e502:	4373      	muls	r3, r6
        for (j = 0; j < N; j++)
    e504:	458a      	cmp	sl, r1
            C[i * N + j] = (MATRES)A[i * N + j] * (MATRES)val;
    e506:	e9c2 0301 	strd	r0, r3, [r2, #4]
    e50a:	f8c2 800c 	str.w	r8, [r2, #12]
        for (j = 0; j < N; j++)
    e50e:	d1e7      	bne.n	e4e0 <matrix_test+0x2fc>
    e510:	9b2a      	ldr	r3, [sp, #168]	; 0xa8
    e512:	b1c5      	cbz	r5, e546 <matrix_test+0x362>
            C[i * N + j] = (MATRES)A[i * N + j] * (MATRES)val;
    e514:	eb01 000c 	add.w	r0, r1, ip
    e518:	f934 1010 	ldrsh.w	r1, [r4, r0, lsl #1]
        for (j = 0; j < N; j++)
    e51c:	2d01      	cmp	r5, #1
            C[i * N + j] = (MATRES)A[i * N + j] * (MATRES)val;
    e51e:	fb06 f101 	mul.w	r1, r6, r1
    e522:	f843 1020 	str.w	r1, [r3, r0, lsl #2]
        for (j = 0; j < N; j++)
    e526:	d00e      	beq.n	e546 <matrix_test+0x362>
            C[i * N + j] = (MATRES)A[i * N + j] * (MATRES)val;
    e528:	1c41      	adds	r1, r0, #1
    e52a:	f934 2011 	ldrsh.w	r2, [r4, r1, lsl #1]
        for (j = 0; j < N; j++)
    e52e:	2d02      	cmp	r5, #2
            C[i * N + j] = (MATRES)A[i * N + j] * (MATRES)val;
    e530:	fb06 f202 	mul.w	r2, r6, r2
    e534:	f843 2021 	str.w	r2, [r3, r1, lsl #2]
        for (j = 0; j < N; j++)
    e538:	d005      	beq.n	e546 <matrix_test+0x362>
            C[i * N + j] = (MATRES)A[i * N + j] * (MATRES)val;
    e53a:	3002      	adds	r0, #2
    e53c:	f934 1010 	ldrsh.w	r1, [r4, r0, lsl #1]
    e540:	4371      	muls	r1, r6
    e542:	f843 1020 	str.w	r1, [r3, r0, lsl #2]
    e546:	f240 0030 	movw	r0, #48	; 0x30
    e54a:	f2c1 0000 	movt	r0, #4096	; 0x1000
    e54e:	4601      	mov	r1, r0
    crc = crc16(matrix_sum(N, C, clipval), crc);
    e550:	6800      	ldr	r0, [r0, #0]
    for (i = 0; i < N; i++)
    e552:	3b10      	subs	r3, #16
    crc = crc16(matrix_sum(N, C, clipval), crc);
    e554:	3001      	adds	r0, #1
    e556:	9005      	str	r0, [sp, #20]
    e558:	6008      	str	r0, [r1, #0]
    for (i = 0; i < N; i++)
    e55a:	9834      	ldr	r0, [sp, #208]	; 0xd0
    e55c:	9c2e      	ldr	r4, [sp, #184]	; 0xb8
    e55e:	0080      	lsls	r0, r0, #2
    e560:	9e34      	ldr	r6, [sp, #208]	; 0xd0
    e562:	9011      	str	r0, [sp, #68]	; 0x44
    e564:	f04f 0900 	mov.w	r9, #0
    e568:	f04f 0b00 	mov.w	fp, #0
    e56c:	2000      	movs	r0, #0
    e56e:	f04f 0c00 	mov.w	ip, #0
    e572:	e013      	b.n	e59c <matrix_test+0x3b8>
            cur = C[i * N + j];
    e574:	689f      	ldr	r7, [r3, #8]
            if (tmp > clipval)
    e576:	2100      	movs	r1, #0
            tmp += cur;
    e578:	4438      	add	r0, r7
            if (tmp > clipval)
    e57a:	4297      	cmp	r7, r2
    e57c:	bfc8      	it	gt
    e57e:	2101      	movgt	r1, #1
    e580:	42a0      	cmp	r0, r4
    e582:	bfc4      	itt	gt
    e584:	210a      	movgt	r1, #10
    e586:	2000      	movgt	r0, #0
    e588:	448b      	add	fp, r1
    e58a:	bf00      	nop
    e58c:	9b17      	ldr	r3, [sp, #92]	; 0x5c
    for (i = 0; i < N; i++)
    e58e:	9911      	ldr	r1, [sp, #68]	; 0x44
    e590:	f109 0901 	add.w	r9, r9, #1
    e594:	440b      	add	r3, r1
    e596:	45b1      	cmp	r9, r6
    e598:	46bc      	mov	ip, r7
    e59a:	d06f      	beq.n	e67c <matrix_test+0x498>
        for (j = 0; j < N; j++)
    e59c:	991a      	ldr	r1, [sp, #104]	; 0x68
    e59e:	2200      	movs	r2, #0
    e5a0:	2903      	cmp	r1, #3
    e5a2:	9317      	str	r3, [sp, #92]	; 0x5c
    e5a4:	d202      	bcs.n	e5ac <matrix_test+0x3c8>
    e5a6:	9d19      	ldr	r5, [sp, #100]	; 0x64
    e5a8:	e03a      	b.n	e620 <matrix_test+0x43c>
    e5aa:	bf00      	nop
    e5ac:	9d19      	ldr	r5, [sp, #100]	; 0x64
    e5ae:	461f      	mov	r7, r3
            cur = C[i * N + j];
    e5b0:	f857 1f10 	ldr.w	r1, [r7, #16]!
            if (tmp > clipval)
    e5b4:	2300      	movs	r3, #0
            tmp += cur;
    e5b6:	4408      	add	r0, r1
            if (tmp > clipval)
    e5b8:	4561      	cmp	r1, ip
    e5ba:	bfc8      	it	gt
    e5bc:	2301      	movgt	r3, #1
    e5be:	42a0      	cmp	r0, r4
    e5c0:	bfc8      	it	gt
    e5c2:	230a      	movgt	r3, #10
            cur = C[i * N + j];
    e5c4:	e9d7 8e01 	ldrd	r8, lr, [r7, #4]
    e5c8:	449b      	add	fp, r3
            tmp += cur;
    e5ca:	4643      	mov	r3, r8
            cur = C[i * N + j];
    e5cc:	f8d7 c00c 	ldr.w	ip, [r7, #12]
            tmp += cur;
    e5d0:	42a0      	cmp	r0, r4
    e5d2:	bfd8      	it	le
    e5d4:	4403      	addle	r3, r0
            if (tmp > clipval)
    e5d6:	2000      	movs	r0, #0
    e5d8:	4588      	cmp	r8, r1
    e5da:	bfc8      	it	gt
    e5dc:	2001      	movgt	r0, #1
            tmp += cur;
    e5de:	4671      	mov	r1, lr
            if (tmp > clipval)
    e5e0:	42a3      	cmp	r3, r4
    e5e2:	bfc8      	it	gt
    e5e4:	200a      	movgt	r0, #10
            tmp += cur;
    e5e6:	bfd8      	it	le
    e5e8:	4419      	addle	r1, r3
            if (tmp > clipval)
    e5ea:	2300      	movs	r3, #0
    e5ec:	45c6      	cmp	lr, r8
    e5ee:	bfc8      	it	gt
    e5f0:	2301      	movgt	r3, #1
    e5f2:	4458      	add	r0, fp
    e5f4:	42a1      	cmp	r1, r4
    e5f6:	bfc8      	it	gt
    e5f8:	230a      	movgt	r3, #10
    e5fa:	4403      	add	r3, r0
            tmp += cur;
    e5fc:	4660      	mov	r0, ip
    e5fe:	bfd8      	it	le
    e600:	4408      	addle	r0, r1
            if (tmp > clipval)
    e602:	45f4      	cmp	ip, lr
    e604:	f04f 0100 	mov.w	r1, #0
    e608:	bfc8      	it	gt
    e60a:	2101      	movgt	r1, #1
    e60c:	42a0      	cmp	r0, r4
        for (j = 0; j < N; j++)
    e60e:	f102 0204 	add.w	r2, r2, #4
            if (tmp > clipval)
    e612:	bfc4      	itt	gt
    e614:	210a      	movgt	r1, #10
    e616:	2000      	movgt	r0, #0
        for (j = 0; j < N; j++)
    e618:	4592      	cmp	sl, r2
    e61a:	eb03 0b01 	add.w	fp, r3, r1
    e61e:	d1c7      	bne.n	e5b0 <matrix_test+0x3cc>
    e620:	2d00      	cmp	r5, #0
    e622:	f240 0530 	movw	r5, #48	; 0x30
    e626:	f2c1 0500 	movt	r5, #4096	; 0x1000
    e62a:	f8dd 80a8 	ldr.w	r8, [sp, #168]	; 0xa8
            cur = C[i * N + j];
    e62e:	4667      	mov	r7, ip
    e630:	46ae      	mov	lr, r5
        for (j = 0; j < N; j++)
    e632:	d0ab      	beq.n	e58c <matrix_test+0x3a8>
    e634:	fb09 f106 	mul.w	r1, r9, r6
            cur = C[i * N + j];
    e638:	440a      	add	r2, r1
    e63a:	f858 7022 	ldr.w	r7, [r8, r2, lsl #2]
            if (tmp > clipval)
    e63e:	2100      	movs	r1, #0
            tmp += cur;
    e640:	4438      	add	r0, r7
            if (tmp > clipval)
    e642:	4567      	cmp	r7, ip
    e644:	bfc8      	it	gt
    e646:	2101      	movgt	r1, #1
    e648:	42a0      	cmp	r0, r4
    e64a:	bfc4      	itt	gt
    e64c:	210a      	movgt	r1, #10
    e64e:	2000      	movgt	r0, #0
    e650:	9d19      	ldr	r5, [sp, #100]	; 0x64
    e652:	448b      	add	fp, r1
        for (j = 0; j < N; j++)
    e654:	2d01      	cmp	r5, #1
    e656:	d099      	beq.n	e58c <matrix_test+0x3a8>
            cur = C[i * N + j];
    e658:	eb08 0382 	add.w	r3, r8, r2, lsl #2
    e65c:	685a      	ldr	r2, [r3, #4]
            if (tmp > clipval)
    e65e:	2100      	movs	r1, #0
            tmp += cur;
    e660:	4410      	add	r0, r2
            if (tmp > clipval)
    e662:	42ba      	cmp	r2, r7
    e664:	bfc8      	it	gt
    e666:	2101      	movgt	r1, #1
    e668:	42a0      	cmp	r0, r4
    e66a:	bfc4      	itt	gt
    e66c:	210a      	movgt	r1, #10
    e66e:	2000      	movgt	r0, #0
        for (j = 0; j < N; j++)
    e670:	2d02      	cmp	r5, #2
    e672:	448b      	add	fp, r1
    e674:	f47f af7e 	bne.w	e574 <matrix_test+0x390>
            cur = C[i * N + j];
    e678:	4617      	mov	r7, r2
    e67a:	e787      	b.n	e58c <matrix_test+0x3a8>
    e67c:	f8dd a0a0 	ldr.w	sl, [sp, #160]	; 0xa0
    e680:	9905      	ldr	r1, [sp, #20]
    crc = crc16(matrix_sum(N, C, clipval), crc);
    e682:	1c48      	adds	r0, r1, #1
    e684:	f8ce 0000 	str.w	r0, [lr]
    e688:	1c88      	adds	r0, r1, #2
    e68a:	f8ce 0000 	str.w	r0, [lr]
    e68e:	fa1f f08b 	uxth.w	r0, fp
    e692:	2100      	movs	r1, #0
    e694:	f000 ff55 	bl	f542 <crcu16>
    e698:	f240 0c30 	movw	ip, #48	; 0x30
    e69c:	f2c1 0c00 	movt	ip, #4096	; 0x1000
    matrix_mul_vect(N, C, A, B);
    e6a0:	f8dc 1000 	ldr.w	r1, [ip]
    e6a4:	4603      	mov	r3, r0
    e6a6:	9834      	ldr	r0, [sp, #208]	; 0xd0
    e6a8:	1c4a      	adds	r2, r1, #1
*/
void
matrix_mul_vect(ee_u32 N, MATRES *C, MATDAT *A, MATDAT *B)
{
    ee_u32 i, j;
    for (i = 0; i < N; i++)
    e6aa:	2800      	cmp	r0, #0
    matrix_mul_vect(N, C, A, B);
    e6ac:	f8cc 2000 	str.w	r2, [ip]
    for (i = 0; i < N; i++)
    e6b0:	f000 816f 	beq.w	e992 <matrix_test+0x7ae>
    e6b4:	1e41      	subs	r1, r0, #1
    e6b6:	9118      	str	r1, [sp, #96]	; 0x60
    e6b8:	f000 0103 	and.w	r1, r0, #3
    {
        C[i] = 0;
    e6bc:	f8dd a0a4 	ldr.w	sl, [sp, #164]	; 0xa4
    e6c0:	9112      	str	r1, [sp, #72]	; 0x48
    e6c2:	1a41      	subs	r1, r0, r1
    for (i = 0; i < N; i++)
    e6c4:	0040      	lsls	r0, r0, #1
    e6c6:	2400      	movs	r4, #0
    e6c8:	9306      	str	r3, [sp, #24]
    e6ca:	911c      	str	r1, [sp, #112]	; 0x70
    e6cc:	900d      	str	r0, [sp, #52]	; 0x34
    e6ce:	e007      	b.n	e6e0 <matrix_test+0x4fc>
    e6d0:	980d      	ldr	r0, [sp, #52]	; 0x34
    e6d2:	3401      	adds	r4, #1
    e6d4:	f8dc 2000 	ldr.w	r2, [ip]
    e6d8:	4574      	cmp	r4, lr
    e6da:	4482      	add	sl, r0
    e6dc:	f000 80af 	beq.w	e83e <matrix_test+0x65a>
        C[i] = 0;
    e6e0:	3201      	adds	r2, #1
    e6e2:	f8cc 2000 	str.w	r2, [ip]
    e6e6:	9e2a      	ldr	r6, [sp, #168]	; 0xa8
    e6e8:	2000      	movs	r0, #0
    e6ea:	f846 0024 	str.w	r0, [r6, r4, lsl #2]
        for (j = 0; j < N; j++)
    e6ee:	9818      	ldr	r0, [sp, #96]	; 0x60
    e6f0:	f8dd 80a0 	ldr.w	r8, [sp, #160]	; 0xa0
    e6f4:	2803      	cmp	r0, #3
    e6f6:	4655      	mov	r5, sl
    e6f8:	f04f 0300 	mov.w	r3, #0
    e6fc:	f04f 0200 	mov.w	r2, #0
    e700:	d35a      	bcc.n	e7b8 <matrix_test+0x5d4>
    e702:	2300      	movs	r3, #0
    e704:	f06f 0701 	mvn.w	r7, #1
    e708:	2200      	movs	r2, #0
    e70a:	951b      	str	r5, [sp, #108]	; 0x6c
        {
            C[i] += (MATRES)A[i * N + j] * (MATRES)B[j];
    e70c:	eb05 0a07 	add.w	sl, r5, r7
    e710:	eb08 0b07 	add.w	fp, r8, r7
    e714:	f240 0030 	movw	r0, #48	; 0x30
    e718:	f9ba c002 	ldrsh.w	ip, [sl, #2]
    e71c:	f9bb e002 	ldrsh.w	lr, [fp, #2]
    e720:	f2c1 0000 	movt	r0, #4096	; 0x1000
    e724:	f8d0 9000 	ldr.w	r9, [r0]
    e728:	fb1e 330c 	smlabb	r3, lr, ip, r3
    e72c:	f240 0130 	movw	r1, #48	; 0x30
    e730:	f109 0001 	add.w	r0, r9, #1
    e734:	f2c1 0100 	movt	r1, #4096	; 0x1000
    e738:	6008      	str	r0, [r1, #0]
    e73a:	f846 3024 	str.w	r3, [r6, r4, lsl #2]
    e73e:	eb05 0042 	add.w	r0, r5, r2, lsl #1
    e742:	eb08 0542 	add.w	r5, r8, r2, lsl #1
    e746:	f240 0130 	movw	r1, #48	; 0x30
    e74a:	f9b0 c002 	ldrsh.w	ip, [r0, #2]
    e74e:	46b6      	mov	lr, r6
    e750:	f9b5 6002 	ldrsh.w	r6, [r5, #2]
    e754:	f2c1 0100 	movt	r1, #4096	; 0x1000
    e758:	f8d1 9000 	ldr.w	r9, [r1]
    e75c:	fb16 330c 	smlabb	r3, r6, ip, r3
    e760:	f240 0c30 	movw	ip, #48	; 0x30
    e764:	f2c1 0c00 	movt	ip, #4096	; 0x1000
    e768:	f109 0101 	add.w	r1, r9, #1
    e76c:	f8cc 1000 	str.w	r1, [ip]
    e770:	f84e 3024 	str.w	r3, [lr, r4, lsl #2]
    e774:	f9b0 0004 	ldrsh.w	r0, [r0, #4]
    e778:	f9b5 1004 	ldrsh.w	r1, [r5, #4]
    e77c:	f8dc 5000 	ldr.w	r5, [ip]
    e780:	fb11 3000 	smlabb	r0, r1, r0, r3
    e784:	1c69      	adds	r1, r5, #1
    e786:	f8cc 1000 	str.w	r1, [ip]
    e78a:	f84e 0024 	str.w	r0, [lr, r4, lsl #2]
    e78e:	f9ba 1008 	ldrsh.w	r1, [sl, #8]
    e792:	f9bb 3008 	ldrsh.w	r3, [fp, #8]
    e796:	f8dc 5000 	ldr.w	r5, [ip]
    e79a:	fb13 0301 	smlabb	r3, r3, r1, r0
    e79e:	1c68      	adds	r0, r5, #1
    e7a0:	9d1b      	ldr	r5, [sp, #108]	; 0x6c
    e7a2:	f8cc 0000 	str.w	r0, [ip]
        for (j = 0; j < N; j++)
    e7a6:	981c      	ldr	r0, [sp, #112]	; 0x70
    e7a8:	3204      	adds	r2, #4
    e7aa:	4676      	mov	r6, lr
    e7ac:	4290      	cmp	r0, r2
    e7ae:	f107 0708 	add.w	r7, r7, #8
            C[i] += (MATRES)A[i * N + j] * (MATRES)B[j];
    e7b2:	f84e 3024 	str.w	r3, [lr, r4, lsl #2]
        for (j = 0; j < N; j++)
    e7b6:	d1a9      	bne.n	e70c <matrix_test+0x528>
    e7b8:	9f12      	ldr	r7, [sp, #72]	; 0x48
    e7ba:	9e29      	ldr	r6, [sp, #164]	; 0xa4
    e7bc:	f8dd e0d0 	ldr.w	lr, [sp, #208]	; 0xd0
    e7c0:	46aa      	mov	sl, r5
    e7c2:	2f00      	cmp	r7, #0
    e7c4:	d084      	beq.n	e6d0 <matrix_test+0x4ec>
    e7c6:	46c1      	mov	r9, r8
    e7c8:	fb04 f80e 	mul.w	r8, r4, lr
            C[i] += (MATRES)A[i * N + j] * (MATRES)B[j];
    e7cc:	eb02 0008 	add.w	r0, r2, r8
    e7d0:	f936 0010 	ldrsh.w	r0, [r6, r0, lsl #1]
    e7d4:	f939 1012 	ldrsh.w	r1, [r9, r2, lsl #1]
    e7d8:	f8dc 5000 	ldr.w	r5, [ip]
    e7dc:	fb11 3300 	smlabb	r3, r1, r0, r3
    e7e0:	1c68      	adds	r0, r5, #1
    e7e2:	f8cc 0000 	str.w	r0, [ip]
    e7e6:	982a      	ldr	r0, [sp, #168]	; 0xa8
        for (j = 0; j < N; j++)
    e7e8:	2f01      	cmp	r7, #1
            C[i] += (MATRES)A[i * N + j] * (MATRES)B[j];
    e7ea:	f840 3024 	str.w	r3, [r0, r4, lsl #2]
        for (j = 0; j < N; j++)
    e7ee:	f43f af6f 	beq.w	e6d0 <matrix_test+0x4ec>
    e7f2:	1c50      	adds	r0, r2, #1
            C[i] += (MATRES)A[i * N + j] * (MATRES)B[j];
    e7f4:	eb00 0108 	add.w	r1, r0, r8
    e7f8:	f936 1011 	ldrsh.w	r1, [r6, r1, lsl #1]
    e7fc:	f939 0010 	ldrsh.w	r0, [r9, r0, lsl #1]
    e800:	f8dc 5000 	ldr.w	r5, [ip]
    e804:	fb10 3301 	smlabb	r3, r0, r1, r3
    e808:	1c68      	adds	r0, r5, #1
    e80a:	f8cc 0000 	str.w	r0, [ip]
    e80e:	982a      	ldr	r0, [sp, #168]	; 0xa8
        for (j = 0; j < N; j++)
    e810:	2f02      	cmp	r7, #2
            C[i] += (MATRES)A[i * N + j] * (MATRES)B[j];
    e812:	f840 3024 	str.w	r3, [r0, r4, lsl #2]
        for (j = 0; j < N; j++)
    e816:	f43f af5b 	beq.w	e6d0 <matrix_test+0x4ec>
    e81a:	1c90      	adds	r0, r2, #2
            C[i] += (MATRES)A[i * N + j] * (MATRES)B[j];
    e81c:	eb00 0108 	add.w	r1, r0, r8
    e820:	f936 1011 	ldrsh.w	r1, [r6, r1, lsl #1]
    e824:	f939 0010 	ldrsh.w	r0, [r9, r0, lsl #1]
    e828:	f8dc 2000 	ldr.w	r2, [ip]
    e82c:	fb10 3001 	smlabb	r0, r0, r1, r3
    e830:	1c51      	adds	r1, r2, #1
    e832:	f8cc 1000 	str.w	r1, [ip]
    e836:	992a      	ldr	r1, [sp, #168]	; 0xa8
    e838:	f841 0024 	str.w	r0, [r1, r4, lsl #2]
    e83c:	e748      	b.n	e6d0 <matrix_test+0x4ec>
    crc = crc16(matrix_sum(N, C, clipval), crc);
    e83e:	1c50      	adds	r0, r2, #1
    e840:	9004      	str	r0, [sp, #16]
    e842:	f8cc 0000 	str.w	r0, [ip]
    for (i = 0; i < N; i++)
    e846:	982a      	ldr	r0, [sp, #168]	; 0xa8
    e848:	9c2e      	ldr	r4, [sp, #184]	; 0xb8
    e84a:	f1a0 0a10 	sub.w	sl, r0, #16
    e84e:	ea4f 008e 	mov.w	r0, lr, lsl #2
    e852:	9e12      	ldr	r6, [sp, #72]	; 0x48
    e854:	f8dd 8070 	ldr.w	r8, [sp, #112]	; 0x70
    e858:	9010      	str	r0, [sp, #64]	; 0x40
    e85a:	f04f 0c00 	mov.w	ip, #0
    e85e:	2000      	movs	r0, #0
    e860:	f04f 0e00 	mov.w	lr, #0
    e864:	f04f 0900 	mov.w	r9, #0
        for (j = 0; j < N; j++)
    e868:	9918      	ldr	r1, [sp, #96]	; 0x60
    e86a:	f04f 0b00 	mov.w	fp, #0
    e86e:	2903      	cmp	r1, #3
    e870:	d358      	bcc.n	e924 <matrix_test+0x740>
    e872:	e01a      	b.n	e8aa <matrix_test+0x6c6>
            cur = C[i * N + j];
    e874:	6897      	ldr	r7, [r2, #8]
            if (tmp > clipval)
    e876:	428f      	cmp	r7, r1
    e878:	f04f 0100 	mov.w	r1, #0
            tmp += cur;
    e87c:	44be      	add	lr, r7
            if (tmp > clipval)
    e87e:	bfc8      	it	gt
    e880:	2101      	movgt	r1, #1
    e882:	45a6      	cmp	lr, r4
    e884:	bfc4      	itt	gt
    e886:	210a      	movgt	r1, #10
    e888:	f04f 0e00 	movgt.w	lr, #0
    e88c:	4408      	add	r0, r1
    e88e:	bf00      	nop
    for (i = 0; i < N; i++)
    e890:	9910      	ldr	r1, [sp, #64]	; 0x40
    e892:	f10c 0c01 	add.w	ip, ip, #1
    e896:	448a      	add	sl, r1
    e898:	9934      	ldr	r1, [sp, #208]	; 0xd0
    e89a:	46b9      	mov	r9, r7
    e89c:	458c      	cmp	ip, r1
    e89e:	d06b      	beq.n	e978 <matrix_test+0x794>
        for (j = 0; j < N; j++)
    e8a0:	9918      	ldr	r1, [sp, #96]	; 0x60
    e8a2:	f04f 0b00 	mov.w	fp, #0
    e8a6:	2903      	cmp	r1, #3
    e8a8:	d33c      	bcc.n	e924 <matrix_test+0x740>
    e8aa:	4657      	mov	r7, sl
            cur = C[i * N + j];
    e8ac:	f857 5f10 	ldr.w	r5, [r7, #16]!
            if (tmp > clipval)
    e8b0:	2200      	movs	r2, #0
            tmp += cur;
    e8b2:	eb05 030e 	add.w	r3, r5, lr
            if (tmp > clipval)
    e8b6:	454d      	cmp	r5, r9
    e8b8:	bfc8      	it	gt
    e8ba:	2201      	movgt	r2, #1
    e8bc:	42a3      	cmp	r3, r4
    e8be:	bfc8      	it	gt
    e8c0:	220a      	movgt	r2, #10
    e8c2:	eb00 0e02 	add.w	lr, r0, r2
            cur = C[i * N + j];
    e8c6:	e9d7 1001 	ldrd	r1, r0, [r7, #4]
            tmp += cur;
    e8ca:	42a3      	cmp	r3, r4
    e8cc:	460a      	mov	r2, r1
            cur = C[i * N + j];
    e8ce:	f8d7 900c 	ldr.w	r9, [r7, #12]
            tmp += cur;
    e8d2:	bfd8      	it	le
    e8d4:	441a      	addle	r2, r3
            if (tmp > clipval)
    e8d6:	42a9      	cmp	r1, r5
    e8d8:	f04f 0300 	mov.w	r3, #0
    e8dc:	bfc8      	it	gt
    e8de:	2301      	movgt	r3, #1
    e8e0:	42a2      	cmp	r2, r4
            tmp += cur;
    e8e2:	4605      	mov	r5, r0
            if (tmp > clipval)
    e8e4:	bfc8      	it	gt
    e8e6:	230a      	movgt	r3, #10
            tmp += cur;
    e8e8:	bfd8      	it	le
    e8ea:	4415      	addle	r5, r2
            if (tmp > clipval)
    e8ec:	4288      	cmp	r0, r1
    e8ee:	f04f 0100 	mov.w	r1, #0
    e8f2:	4473      	add	r3, lr
    e8f4:	bfc8      	it	gt
    e8f6:	2101      	movgt	r1, #1
    e8f8:	42a5      	cmp	r5, r4
            tmp += cur;
    e8fa:	46ce      	mov	lr, r9
            if (tmp > clipval)
    e8fc:	bfc8      	it	gt
    e8fe:	210a      	movgt	r1, #10
            tmp += cur;
    e900:	bfd8      	it	le
    e902:	44ae      	addle	lr, r5
            if (tmp > clipval)
    e904:	4581      	cmp	r9, r0
    e906:	f04f 0000 	mov.w	r0, #0
    e90a:	bfc8      	it	gt
    e90c:	2001      	movgt	r0, #1
    e90e:	4419      	add	r1, r3
    e910:	45a6      	cmp	lr, r4
    e912:	bfc4      	itt	gt
    e914:	200a      	movgt	r0, #10
    e916:	f04f 0e00 	movgt.w	lr, #0
        for (j = 0; j < N; j++)
    e91a:	f10b 0b04 	add.w	fp, fp, #4
    e91e:	45d8      	cmp	r8, fp
    e920:	4408      	add	r0, r1
    e922:	d1c3      	bne.n	e8ac <matrix_test+0x6c8>
    e924:	2e00      	cmp	r6, #0
            cur = C[i * N + j];
    e926:	464f      	mov	r7, r9
        for (j = 0; j < N; j++)
    e928:	d0b2      	beq.n	e890 <matrix_test+0x6ac>
    e92a:	9934      	ldr	r1, [sp, #208]	; 0xd0
    e92c:	9b2a      	ldr	r3, [sp, #168]	; 0xa8
    e92e:	fb0c f101 	mul.w	r1, ip, r1
            cur = C[i * N + j];
    e932:	4459      	add	r1, fp
    e934:	f853 7021 	ldr.w	r7, [r3, r1, lsl #2]
            if (tmp > clipval)
    e938:	2200      	movs	r2, #0
            tmp += cur;
    e93a:	44be      	add	lr, r7
            if (tmp > clipval)
    e93c:	454f      	cmp	r7, r9
    e93e:	bfc8      	it	gt
    e940:	2201      	movgt	r2, #1
    e942:	45a6      	cmp	lr, r4
    e944:	bfc4      	itt	gt
    e946:	220a      	movgt	r2, #10
    e948:	f04f 0e00 	movgt.w	lr, #0
        for (j = 0; j < N; j++)
    e94c:	2e01      	cmp	r6, #1
    e94e:	4410      	add	r0, r2
    e950:	d09e      	beq.n	e890 <matrix_test+0x6ac>
            cur = C[i * N + j];
    e952:	eb03 0281 	add.w	r2, r3, r1, lsl #2
    e956:	6851      	ldr	r1, [r2, #4]
            if (tmp > clipval)
    e958:	2300      	movs	r3, #0
            tmp += cur;
    e95a:	448e      	add	lr, r1
            if (tmp > clipval)
    e95c:	42b9      	cmp	r1, r7
    e95e:	bfc8      	it	gt
    e960:	2301      	movgt	r3, #1
    e962:	45a6      	cmp	lr, r4
    e964:	bfc4      	itt	gt
    e966:	230a      	movgt	r3, #10
    e968:	f04f 0e00 	movgt.w	lr, #0
        for (j = 0; j < N; j++)
    e96c:	2e02      	cmp	r6, #2
    e96e:	4418      	add	r0, r3
    e970:	f47f af80 	bne.w	e874 <matrix_test+0x690>
            cur = C[i * N + j];
    e974:	460f      	mov	r7, r1
    e976:	e78b      	b.n	e890 <matrix_test+0x6ac>
    e978:	f8dd b0a4 	ldr.w	fp, [sp, #164]	; 0xa4
    e97c:	f240 0c30 	movw	ip, #48	; 0x30
    e980:	f8dd 80a8 	ldr.w	r8, [sp, #168]	; 0xa8
    e984:	f8dd a0a0 	ldr.w	sl, [sp, #160]	; 0xa0
    e988:	9b06      	ldr	r3, [sp, #24]
    e98a:	9a04      	ldr	r2, [sp, #16]
    e98c:	f2c1 0c00 	movt	ip, #4096	; 0x1000
    e990:	e005      	b.n	e99e <matrix_test+0x7ba>
    crc = crc16(matrix_sum(N, C, clipval), crc);
    e992:	1c8a      	adds	r2, r1, #2
    e994:	f8cc 2000 	str.w	r2, [ip]
    e998:	f8dd b0a4 	ldr.w	fp, [sp, #164]	; 0xa4
    e99c:	2000      	movs	r0, #0
    e99e:	1c51      	adds	r1, r2, #1
    e9a0:	f8cc 1000 	str.w	r1, [ip]
    e9a4:	1c91      	adds	r1, r2, #2
    e9a6:	f8cc 1000 	str.w	r1, [ip]
    e9aa:	b280      	uxth	r0, r0
    e9ac:	4619      	mov	r1, r3
    e9ae:	f000 fdc8 	bl	f542 <crcu16>
    e9b2:	f240 0e30 	movw	lr, #48	; 0x30
    e9b6:	f2c1 0e00 	movt	lr, #4096	; 0x1000
    matrix_mul_matrix(N, C, A, B);
    e9ba:	f8de 2000 	ldr.w	r2, [lr]
    e9be:	9934      	ldr	r1, [sp, #208]	; 0xd0
    e9c0:	4603      	mov	r3, r0
    e9c2:	1c50      	adds	r0, r2, #1
*/
void
matrix_mul_matrix(ee_u32 N, MATRES *C, MATDAT *A, MATDAT *B)
{
    ee_u32 i, j, k;
    for (i = 0; i < N; i++)
    e9c4:	2900      	cmp	r1, #0
    matrix_mul_matrix(N, C, A, B);
    e9c6:	f8ce 0000 	str.w	r0, [lr]
    for (i = 0; i < N; i++)
    e9ca:	f000 818f 	beq.w	ecec <matrix_test+0xb08>
    e9ce:	1e48      	subs	r0, r1, #1
    e9d0:	f001 0903 	and.w	r9, r1, #3
    e9d4:	9021      	str	r0, [sp, #132]	; 0x84
    e9d6:	eba1 0009 	sub.w	r0, r1, r9
    e9da:	9026      	str	r0, [sp, #152]	; 0x98
    e9dc:	f1ab 0002 	sub.w	r0, fp, #2
    e9e0:	901d      	str	r0, [sp, #116]	; 0x74
    e9e2:	0048      	lsls	r0, r1, #1
    e9e4:	900e      	str	r0, [sp, #56]	; 0x38
    e9e6:	eb01 0041 	add.w	r0, r1, r1, lsl #1
    e9ea:	0040      	lsls	r0, r0, #1
    e9ec:	9307      	str	r3, [sp, #28]
    e9ee:	9030      	str	r0, [sp, #192]	; 0xc0
    e9f0:	00c8      	lsls	r0, r1, #3
    e9f2:	2300      	movs	r3, #0
    e9f4:	902f      	str	r0, [sp, #188]	; 0xbc
    e9f6:	f8cd 908c 	str.w	r9, [sp, #140]	; 0x8c
    e9fa:	e00d      	b.n	ea18 <matrix_test+0x834>
    e9fc:	9b15      	ldr	r3, [sp, #84]	; 0x54
    e9fe:	981d      	ldr	r0, [sp, #116]	; 0x74
    ea00:	9a0e      	ldr	r2, [sp, #56]	; 0x38
    ea02:	f8dd b090 	ldr.w	fp, [sp, #144]	; 0x90
    ea06:	3301      	adds	r3, #1
    ea08:	f8dd a0a0 	ldr.w	sl, [sp, #160]	; 0xa0
    ea0c:	4410      	add	r0, r2
    ea0e:	428b      	cmp	r3, r1
    ea10:	4493      	add	fp, r2
    ea12:	901d      	str	r0, [sp, #116]	; 0x74
    ea14:	f000 80be 	beq.w	eb94 <matrix_test+0x9b0>
    ea18:	fb03 f401 	mul.w	r4, r3, r1
    ea1c:	2500      	movs	r5, #0
    ea1e:	f8cd b090 	str.w	fp, [sp, #144]	; 0x90
    ea22:	9315      	str	r3, [sp, #84]	; 0x54
    ea24:	f8cd a0ac 	str.w	sl, [sp, #172]	; 0xac
    ea28:	941f      	str	r4, [sp, #124]	; 0x7c
    ea2a:	e006      	b.n	ea3a <matrix_test+0x856>
    {
        for (j = 0; j < N; j++)
    ea2c:	982b      	ldr	r0, [sp, #172]	; 0xac
    ea2e:	3501      	adds	r5, #1
    ea30:	428d      	cmp	r5, r1
    ea32:	f100 0002 	add.w	r0, r0, #2
    ea36:	902b      	str	r0, [sp, #172]	; 0xac
    ea38:	d0e0      	beq.n	e9fc <matrix_test+0x818>
    ea3a:	9e2a      	ldr	r6, [sp, #168]	; 0xa8
        {
            C[i * N + j] = 0;
    ea3c:	eb05 0a04 	add.w	sl, r5, r4
    ea40:	2200      	movs	r2, #0
    ea42:	f846 202a 	str.w	r2, [r6, sl, lsl #2]
            for (k = 0; k < N; k++)
    ea46:	9a21      	ldr	r2, [sp, #132]	; 0x84
    ea48:	f8dd c098 	ldr.w	ip, [sp, #152]	; 0x98
    ea4c:	9c24      	ldr	r4, [sp, #144]	; 0x90
    ea4e:	2a03      	cmp	r2, #3
    ea50:	f04f 0200 	mov.w	r2, #0
    ea54:	f04f 0800 	mov.w	r8, #0
    ea58:	9527      	str	r5, [sp, #156]	; 0x9c
    ea5a:	d34e      	bcc.n	eafa <matrix_test+0x916>
            {
                C[i * N + j] += (MATRES)A[i * N + k] * (MATRES)B[k * N + j];
    ea5c:	f8dd b0ac 	ldr.w	fp, [sp, #172]	; 0xac
    ea60:	f8dd 9074 	ldr.w	r9, [sp, #116]	; 0x74
    ea64:	2200      	movs	r2, #0
    ea66:	f04f 0800 	mov.w	r8, #0
    ea6a:	bf00      	nop
    ea6c:	f240 0130 	movw	r1, #48	; 0x30
    ea70:	f9b9 5002 	ldrsh.w	r5, [r9, #2]
    ea74:	f9bb 3000 	ldrsh.w	r3, [fp]
    ea78:	f2c1 0100 	movt	r1, #4096	; 0x1000
    ea7c:	f8d1 e000 	ldr.w	lr, [r1]
    ea80:	fb13 2205 	smlabb	r2, r3, r5, r2
    ea84:	f240 0730 	movw	r7, #48	; 0x30
    ea88:	f10e 0301 	add.w	r3, lr, #1
    ea8c:	f2c1 0700 	movt	r7, #4096	; 0x1000
    ea90:	9934      	ldr	r1, [sp, #208]	; 0xd0
    ea92:	603b      	str	r3, [r7, #0]
    ea94:	f846 202a 	str.w	r2, [r6, sl, lsl #2]
    ea98:	eb04 0348 	add.w	r3, r4, r8, lsl #1
    ea9c:	f9b3 5002 	ldrsh.w	r5, [r3, #2]
    eaa0:	4650      	mov	r0, sl
    eaa2:	46a2      	mov	sl, r4
    eaa4:	f93b 4011 	ldrsh.w	r4, [fp, r1, lsl #1]
    eaa8:	46b6      	mov	lr, r6
    eaaa:	683e      	ldr	r6, [r7, #0]
    eaac:	fb14 2205 	smlabb	r2, r4, r5, r2
    eab0:	4654      	mov	r4, sl
    eab2:	4682      	mov	sl, r0
    eab4:	3601      	adds	r6, #1
    eab6:	9830      	ldr	r0, [sp, #192]	; 0xc0
    eab8:	603e      	str	r6, [r7, #0]
    eaba:	f84e 202a 	str.w	r2, [lr, sl, lsl #2]
    eabe:	f9b3 3004 	ldrsh.w	r3, [r3, #4]
    eac2:	f93b 6021 	ldrsh.w	r6, [fp, r1, lsl #2]
    eac6:	683d      	ldr	r5, [r7, #0]
    eac8:	fb16 2203 	smlabb	r2, r6, r3, r2
    eacc:	1c6b      	adds	r3, r5, #1
    eace:	603b      	str	r3, [r7, #0]
    ead0:	f84e 202a 	str.w	r2, [lr, sl, lsl #2]
    ead4:	f939 3f08 	ldrsh.w	r3, [r9, #8]!
    ead8:	f93b 6000 	ldrsh.w	r6, [fp, r0]
    eadc:	683d      	ldr	r5, [r7, #0]
    eade:	fb16 2203 	smlabb	r2, r6, r3, r2
    eae2:	1c6b      	adds	r3, r5, #1
    eae4:	603b      	str	r3, [r7, #0]
            for (k = 0; k < N; k++)
    eae6:	9b2f      	ldr	r3, [sp, #188]	; 0xbc
    eae8:	f108 0804 	add.w	r8, r8, #4
    eaec:	4676      	mov	r6, lr
    eaee:	46be      	mov	lr, r7
    eaf0:	45c4      	cmp	ip, r8
    eaf2:	449b      	add	fp, r3
                C[i * N + j] += (MATRES)A[i * N + k] * (MATRES)B[k * N + j];
    eaf4:	f846 202a 	str.w	r2, [r6, sl, lsl #2]
            for (k = 0; k < N; k++)
    eaf8:	d1b8      	bne.n	ea6c <matrix_test+0x888>
    eafa:	f8dd 908c 	ldr.w	r9, [sp, #140]	; 0x8c
    eafe:	f8dd c0a4 	ldr.w	ip, [sp, #164]	; 0xa4
    eb02:	9c1f      	ldr	r4, [sp, #124]	; 0x7c
    eb04:	9d27      	ldr	r5, [sp, #156]	; 0x9c
    eb06:	f1b9 0f00 	cmp.w	r9, #0
    eb0a:	d08f      	beq.n	ea2c <matrix_test+0x848>
                C[i * N + j] += (MATRES)A[i * N + k] * (MATRES)B[k * N + j];
    eb0c:	fb08 5601 	mla	r6, r8, r1, r5
    eb10:	9828      	ldr	r0, [sp, #160]	; 0xa0
    eb12:	eb08 0304 	add.w	r3, r8, r4
    eb16:	f93c 3013 	ldrsh.w	r3, [ip, r3, lsl #1]
    eb1a:	f930 6016 	ldrsh.w	r6, [r0, r6, lsl #1]
    eb1e:	f8de 0000 	ldr.w	r0, [lr]
    eb22:	fb16 2203 	smlabb	r2, r6, r3, r2
    eb26:	1c43      	adds	r3, r0, #1
    eb28:	f8ce 3000 	str.w	r3, [lr]
    eb2c:	982a      	ldr	r0, [sp, #168]	; 0xa8
            for (k = 0; k < N; k++)
    eb2e:	f1b9 0f01 	cmp.w	r9, #1
                C[i * N + j] += (MATRES)A[i * N + k] * (MATRES)B[k * N + j];
    eb32:	f840 202a 	str.w	r2, [r0, sl, lsl #2]
            for (k = 0; k < N; k++)
    eb36:	f43f af79 	beq.w	ea2c <matrix_test+0x848>
    eb3a:	f108 0301 	add.w	r3, r8, #1
                C[i * N + j] += (MATRES)A[i * N + k] * (MATRES)B[k * N + j];
    eb3e:	191e      	adds	r6, r3, r4
    eb40:	fb03 5301 	mla	r3, r3, r1, r5
    eb44:	9828      	ldr	r0, [sp, #160]	; 0xa0
    eb46:	f93c 6016 	ldrsh.w	r6, [ip, r6, lsl #1]
    eb4a:	f930 3013 	ldrsh.w	r3, [r0, r3, lsl #1]
    eb4e:	f8de 0000 	ldr.w	r0, [lr]
    eb52:	fb13 2206 	smlabb	r2, r3, r6, r2
    eb56:	1c43      	adds	r3, r0, #1
    eb58:	f8ce 3000 	str.w	r3, [lr]
    eb5c:	982a      	ldr	r0, [sp, #168]	; 0xa8
            for (k = 0; k < N; k++)
    eb5e:	f1b9 0f02 	cmp.w	r9, #2
                C[i * N + j] += (MATRES)A[i * N + k] * (MATRES)B[k * N + j];
    eb62:	f840 202a 	str.w	r2, [r0, sl, lsl #2]
            for (k = 0; k < N; k++)
    eb66:	f43f af61 	beq.w	ea2c <matrix_test+0x848>
    eb6a:	f108 0302 	add.w	r3, r8, #2
                C[i * N + j] += (MATRES)A[i * N + k] * (MATRES)B[k * N + j];
    eb6e:	191f      	adds	r7, r3, r4
    eb70:	fb03 5301 	mla	r3, r3, r1, r5
    eb74:	9828      	ldr	r0, [sp, #160]	; 0xa0
    eb76:	f93c 7017 	ldrsh.w	r7, [ip, r7, lsl #1]
    eb7a:	f930 3013 	ldrsh.w	r3, [r0, r3, lsl #1]
    eb7e:	f8de 6000 	ldr.w	r6, [lr]
    eb82:	fb13 2207 	smlabb	r2, r3, r7, r2
    eb86:	1c73      	adds	r3, r6, #1
    eb88:	f8ce 3000 	str.w	r3, [lr]
    eb8c:	982a      	ldr	r0, [sp, #168]	; 0xa8
    eb8e:	f840 202a 	str.w	r2, [r0, sl, lsl #2]
    eb92:	e74b      	b.n	ea2c <matrix_test+0x848>
    crc = crc16(matrix_sum(N, C, clipval), crc);
    eb94:	f8de 0000 	ldr.w	r0, [lr]
    for (i = 0; i < N; i++)
    eb98:	ea4f 0881 	mov.w	r8, r1, lsl #2
    crc = crc16(matrix_sum(N, C, clipval), crc);
    eb9c:	3001      	adds	r0, #1
    eb9e:	9003      	str	r0, [sp, #12]
    eba0:	f8ce 0000 	str.w	r0, [lr]
    for (i = 0; i < N; i++)
    eba4:	982a      	ldr	r0, [sp, #168]	; 0xa8
    eba6:	9c2e      	ldr	r4, [sp, #184]	; 0xb8
    eba8:	f1a0 0b10 	sub.w	fp, r0, #16
    ebac:	f04f 0c00 	mov.w	ip, #0
    ebb0:	2100      	movs	r1, #0
    ebb2:	f04f 0e00 	mov.w	lr, #0
    ebb6:	f04f 0900 	mov.w	r9, #0
        for (j = 0; j < N; j++)
    ebba:	9821      	ldr	r0, [sp, #132]	; 0x84
    ebbc:	2803      	cmp	r0, #3
    ebbe:	d21d      	bcs.n	ebfc <matrix_test+0xa18>
    ebc0:	e016      	b.n	ebf0 <matrix_test+0xa0c>
            cur = C[i * N + j];
    ebc2:	6897      	ldr	r7, [r2, #8]
            if (tmp > clipval)
    ebc4:	4287      	cmp	r7, r0
    ebc6:	f04f 0000 	mov.w	r0, #0
            tmp += cur;
    ebca:	44be      	add	lr, r7
            if (tmp > clipval)
    ebcc:	bfc8      	it	gt
    ebce:	2001      	movgt	r0, #1
    ebd0:	45a6      	cmp	lr, r4
    ebd2:	bfc4      	itt	gt
    ebd4:	200a      	movgt	r0, #10
    ebd6:	f04f 0e00 	movgt.w	lr, #0
    ebda:	4401      	add	r1, r0
    for (i = 0; i < N; i++)
    ebdc:	9834      	ldr	r0, [sp, #208]	; 0xd0
    ebde:	f10c 0c01 	add.w	ip, ip, #1
    ebe2:	44c3      	add	fp, r8
    ebe4:	4584      	cmp	ip, r0
    ebe6:	46b9      	mov	r9, r7
    ebe8:	d075      	beq.n	ecd6 <matrix_test+0xaf2>
        for (j = 0; j < N; j++)
    ebea:	9821      	ldr	r0, [sp, #132]	; 0x84
    ebec:	2803      	cmp	r0, #3
    ebee:	d205      	bcs.n	ebfc <matrix_test+0xa18>
    ebf0:	2000      	movs	r0, #0
    ebf2:	9a23      	ldr	r2, [sp, #140]	; 0x8c
            cur = C[i * N + j];
    ebf4:	464f      	mov	r7, r9
        for (j = 0; j < N; j++)
    ebf6:	2a00      	cmp	r2, #0
    ebf8:	d145      	bne.n	ec86 <matrix_test+0xaa2>
    ebfa:	e7ef      	b.n	ebdc <matrix_test+0x9f8>
    ebfc:	2000      	movs	r0, #0
    ebfe:	465f      	mov	r7, fp
            cur = C[i * N + j];
    ec00:	f857 3f10 	ldr.w	r3, [r7, #16]!
            if (tmp > clipval)
    ec04:	2200      	movs	r2, #0
            tmp += cur;
    ec06:	eb03 060e 	add.w	r6, r3, lr
            if (tmp > clipval)
    ec0a:	454b      	cmp	r3, r9
    ec0c:	bfc8      	it	gt
    ec0e:	2201      	movgt	r2, #1
    ec10:	42a6      	cmp	r6, r4
    ec12:	bfc8      	it	gt
    ec14:	220a      	movgt	r2, #10
            cur = C[i * N + j];
    ec16:	f107 0904 	add.w	r9, r7, #4
    ec1a:	4411      	add	r1, r2
    ec1c:	e899 0214 	ldmia.w	r9, {r2, r4, r9}
            tmp += cur;
    ec20:	9d2e      	ldr	r5, [sp, #184]	; 0xb8
    ec22:	46ce      	mov	lr, r9
    ec24:	42ae      	cmp	r6, r5
    ec26:	4615      	mov	r5, r2
    ec28:	bfd8      	it	le
    ec2a:	4435      	addle	r5, r6
            if (tmp > clipval)
    ec2c:	429a      	cmp	r2, r3
    ec2e:	f04f 0300 	mov.w	r3, #0
    ec32:	bfc8      	it	gt
    ec34:	2301      	movgt	r3, #1
    ec36:	9e2e      	ldr	r6, [sp, #184]	; 0xb8
        for (j = 0; j < N; j++)
    ec38:	3004      	adds	r0, #4
            if (tmp > clipval)
    ec3a:	42b5      	cmp	r5, r6
    ec3c:	bfc8      	it	gt
    ec3e:	230a      	movgt	r3, #10
    ec40:	4419      	add	r1, r3
            tmp += cur;
    ec42:	4623      	mov	r3, r4
    ec44:	bfd8      	it	le
    ec46:	442b      	addle	r3, r5
            if (tmp > clipval)
    ec48:	4294      	cmp	r4, r2
    ec4a:	f04f 0200 	mov.w	r2, #0
    ec4e:	bfc8      	it	gt
    ec50:	2201      	movgt	r2, #1
    ec52:	9e2e      	ldr	r6, [sp, #184]	; 0xb8
    ec54:	42b3      	cmp	r3, r6
    ec56:	bfc8      	it	gt
    ec58:	220a      	movgt	r2, #10
    ec5a:	4411      	add	r1, r2
            tmp += cur;
    ec5c:	bfd8      	it	le
    ec5e:	449e      	addle	lr, r3
            if (tmp > clipval)
    ec60:	45a1      	cmp	r9, r4
    ec62:	9c2e      	ldr	r4, [sp, #184]	; 0xb8
    ec64:	f04f 0200 	mov.w	r2, #0
    ec68:	bfc8      	it	gt
    ec6a:	2201      	movgt	r2, #1
    ec6c:	45a6      	cmp	lr, r4
    ec6e:	bfc4      	itt	gt
    ec70:	220a      	movgt	r2, #10
    ec72:	f04f 0e00 	movgt.w	lr, #0
        for (j = 0; j < N; j++)
    ec76:	9b26      	ldr	r3, [sp, #152]	; 0x98
    ec78:	4411      	add	r1, r2
    ec7a:	4283      	cmp	r3, r0
    ec7c:	d1c0      	bne.n	ec00 <matrix_test+0xa1c>
    ec7e:	9a23      	ldr	r2, [sp, #140]	; 0x8c
            cur = C[i * N + j];
    ec80:	464f      	mov	r7, r9
        for (j = 0; j < N; j++)
    ec82:	2a00      	cmp	r2, #0
    ec84:	d0aa      	beq.n	ebdc <matrix_test+0x9f8>
    ec86:	9a34      	ldr	r2, [sp, #208]	; 0xd0
    ec88:	9b2a      	ldr	r3, [sp, #168]	; 0xa8
    ec8a:	fb0c f202 	mul.w	r2, ip, r2
            cur = C[i * N + j];
    ec8e:	4410      	add	r0, r2
    ec90:	f853 7020 	ldr.w	r7, [r3, r0, lsl #2]
            if (tmp > clipval)
    ec94:	2200      	movs	r2, #0
            tmp += cur;
    ec96:	44be      	add	lr, r7
            if (tmp > clipval)
    ec98:	454f      	cmp	r7, r9
    ec9a:	bfc8      	it	gt
    ec9c:	2201      	movgt	r2, #1
    ec9e:	45a6      	cmp	lr, r4
    eca0:	bfc4      	itt	gt
    eca2:	220a      	movgt	r2, #10
    eca4:	f04f 0e00 	movgt.w	lr, #0
    eca8:	9d23      	ldr	r5, [sp, #140]	; 0x8c
    ecaa:	4411      	add	r1, r2
        for (j = 0; j < N; j++)
    ecac:	2d01      	cmp	r5, #1
    ecae:	d095      	beq.n	ebdc <matrix_test+0x9f8>
            cur = C[i * N + j];
    ecb0:	eb03 0280 	add.w	r2, r3, r0, lsl #2
    ecb4:	6850      	ldr	r0, [r2, #4]
            if (tmp > clipval)
    ecb6:	2300      	movs	r3, #0
            tmp += cur;
    ecb8:	4486      	add	lr, r0
            if (tmp > clipval)
    ecba:	42b8      	cmp	r0, r7
    ecbc:	bfc8      	it	gt
    ecbe:	2301      	movgt	r3, #1
    ecc0:	45a6      	cmp	lr, r4
    ecc2:	bfc4      	itt	gt
    ecc4:	230a      	movgt	r3, #10
    ecc6:	f04f 0e00 	movgt.w	lr, #0
        for (j = 0; j < N; j++)
    ecca:	2d02      	cmp	r5, #2
    eccc:	4419      	add	r1, r3
    ecce:	f47f af78 	bne.w	ebc2 <matrix_test+0x9de>
            cur = C[i * N + j];
    ecd2:	4607      	mov	r7, r0
    ecd4:	e782      	b.n	ebdc <matrix_test+0x9f8>
    ecd6:	f8dd b0a4 	ldr.w	fp, [sp, #164]	; 0xa4
    ecda:	f240 0e30 	movw	lr, #48	; 0x30
    ecde:	f8dd 80a8 	ldr.w	r8, [sp, #168]	; 0xa8
    ece2:	9b07      	ldr	r3, [sp, #28]
    ece4:	9a03      	ldr	r2, [sp, #12]
    ece6:	f2c1 0e00 	movt	lr, #4096	; 0x1000
    ecea:	e003      	b.n	ecf4 <matrix_test+0xb10>
    crc = crc16(matrix_sum(N, C, clipval), crc);
    ecec:	3202      	adds	r2, #2
    ecee:	f8ce 2000 	str.w	r2, [lr]
    ecf2:	2100      	movs	r1, #0
    ecf4:	1c50      	adds	r0, r2, #1
    ecf6:	f8ce 0000 	str.w	r0, [lr]
    ecfa:	1c90      	adds	r0, r2, #2
    ecfc:	f8ce 0000 	str.w	r0, [lr]
    ed00:	b288      	uxth	r0, r1
    ed02:	4619      	mov	r1, r3
    ed04:	4674      	mov	r4, lr
    ed06:	f000 fc1c 	bl	f542 <crcu16>
    matrix_mul_matrix_bitextract(N, C, A, B);
    ed0a:	6821      	ldr	r1, [r4, #0]
    ed0c:	f8dd c0d0 	ldr.w	ip, [sp, #208]	; 0xd0
    ed10:	4602      	mov	r2, r0
    ed12:	1c48      	adds	r0, r1, #1
*/
void
matrix_mul_matrix_bitextract(ee_u32 N, MATRES *C, MATDAT *A, MATDAT *B)
{
    ee_u32 i, j, k;
    for (i = 0; i < N; i++)
    ed14:	f1bc 0f00 	cmp.w	ip, #0
    matrix_mul_matrix_bitextract(N, C, A, B);
    ed18:	6020      	str	r0, [r4, #0]
    for (i = 0; i < N; i++)
    ed1a:	f000 81a0 	beq.w	f05e <matrix_test+0xe7a>
    ed1e:	f1ac 0001 	sub.w	r0, ip, #1
    ed22:	f00c 0603 	and.w	r6, ip, #3
    ed26:	9022      	str	r0, [sp, #136]	; 0x88
    ed28:	ebac 0006 	sub.w	r0, ip, r6
    ed2c:	9033      	str	r0, [sp, #204]	; 0xcc
    ed2e:	f1ab 0002 	sub.w	r0, fp, #2
    ed32:	901e      	str	r0, [sp, #120]	; 0x78
    ed34:	ea4f 004c 	mov.w	r0, ip, lsl #1
    ed38:	900f      	str	r0, [sp, #60]	; 0x3c
    ed3a:	eb0c 004c 	add.w	r0, ip, ip, lsl #1
    ed3e:	0040      	lsls	r0, r0, #1
    ed40:	9208      	str	r2, [sp, #32]
    ed42:	9032      	str	r0, [sp, #200]	; 0xc8
    ed44:	ea4f 00cc 	mov.w	r0, ip, lsl #3
    ed48:	2200      	movs	r2, #0
    ed4a:	9031      	str	r0, [sp, #196]	; 0xc4
    ed4c:	9625      	str	r6, [sp, #148]	; 0x94
    ed4e:	e009      	b.n	ed64 <matrix_test+0xb80>
    ed50:	9a16      	ldr	r2, [sp, #88]	; 0x58
    ed52:	981e      	ldr	r0, [sp, #120]	; 0x78
    ed54:	990f      	ldr	r1, [sp, #60]	; 0x3c
    ed56:	3201      	adds	r2, #1
    ed58:	4408      	add	r0, r1
    ed5a:	4562      	cmp	r2, ip
    ed5c:	448b      	add	fp, r1
    ed5e:	901e      	str	r0, [sp, #120]	; 0x78
    ed60:	f000 80d6 	beq.w	ef10 <matrix_test+0xd2c>
    ed64:	fb02 f10c 	mul.w	r1, r2, ip
    ed68:	2400      	movs	r4, #0
    ed6a:	9216      	str	r2, [sp, #88]	; 0x58
    ed6c:	f8cd a0b0 	str.w	sl, [sp, #176]	; 0xb0
    ed70:	9120      	str	r1, [sp, #128]	; 0x80
    ed72:	e006      	b.n	ed82 <matrix_test+0xb9e>
    {
        for (j = 0; j < N; j++)
    ed74:	982c      	ldr	r0, [sp, #176]	; 0xb0
    ed76:	3401      	adds	r4, #1
    ed78:	4564      	cmp	r4, ip
    ed7a:	f100 0002 	add.w	r0, r0, #2
    ed7e:	902c      	str	r0, [sp, #176]	; 0xb0
    ed80:	d0e6      	beq.n	ed50 <matrix_test+0xb6c>
        {
            C[i * N + j] = 0;
    ed82:	eb04 0901 	add.w	r9, r4, r1
    ed86:	2000      	movs	r0, #0
    ed88:	f848 0029 	str.w	r0, [r8, r9, lsl #2]
            for (k = 0; k < N; k++)
    ed8c:	9822      	ldr	r0, [sp, #136]	; 0x88
    ed8e:	f240 0a30 	movw	sl, #48	; 0x30
    ed92:	2803      	cmp	r0, #3
    ed94:	f04f 0e00 	mov.w	lr, #0
    ed98:	f04f 0200 	mov.w	r2, #0
    ed9c:	f2c1 0a00 	movt	sl, #4096	; 0x1000
    eda0:	4641      	mov	r1, r8
    eda2:	942d      	str	r4, [sp, #180]	; 0xb4
    eda4:	d356      	bcc.n	ee54 <matrix_test+0xc70>
            {
                MATRES tmp = (MATRES)A[i * N + k] * (MATRES)B[k * N + j];
                C[i * N + j] += bit_extract(tmp, 2, 4) * bit_extract(tmp, 5, 7);
    eda6:	9f2c      	ldr	r7, [sp, #176]	; 0xb0
    eda8:	f8dd 8078 	ldr.w	r8, [sp, #120]	; 0x78
    edac:	f04f 0e00 	mov.w	lr, #0
    edb0:	2200      	movs	r2, #0
    edb2:	bf00      	nop
                MATRES tmp = (MATRES)A[i * N + k] * (MATRES)B[k * N + j];
    edb4:	f9b8 4002 	ldrsh.w	r4, [r8, #2]
    edb8:	f9b7 5000 	ldrsh.w	r5, [r7]
    edbc:	436c      	muls	r4, r5
                C[i * N + j] += bit_extract(tmp, 2, 4) * bit_extract(tmp, 5, 7);
    edbe:	f3c4 0583 	ubfx	r5, r4, #2, #4
    edc2:	f3c4 1446 	ubfx	r4, r4, #5, #7
    edc6:	f8da 6000 	ldr.w	r6, [sl]
    edca:	fb15 e504 	smlabb	r5, r5, r4, lr
    edce:	3601      	adds	r6, #1
    edd0:	f8ca 6000 	str.w	r6, [sl]
                MATRES tmp = (MATRES)A[i * N + k] * (MATRES)B[k * N + j];
    edd4:	eb0b 0642 	add.w	r6, fp, r2, lsl #1
    edd8:	f9b6 4002 	ldrsh.w	r4, [r6, #2]
    eddc:	f937 301c 	ldrsh.w	r3, [r7, ip, lsl #1]
                C[i * N + j] += bit_extract(tmp, 2, 4) * bit_extract(tmp, 5, 7);
    ede0:	f841 5029 	str.w	r5, [r1, r9, lsl #2]
                MATRES tmp = (MATRES)A[i * N + k] * (MATRES)B[k * N + j];
    ede4:	4363      	muls	r3, r4
                C[i * N + j] += bit_extract(tmp, 2, 4) * bit_extract(tmp, 5, 7);
    ede6:	f3c3 0483 	ubfx	r4, r3, #2, #4
    edea:	f3c3 1346 	ubfx	r3, r3, #5, #7
    edee:	f8da 0000 	ldr.w	r0, [sl]
    edf2:	fb14 5303 	smlabb	r3, r4, r3, r5
    edf6:	3001      	adds	r0, #1
    edf8:	f8ca 0000 	str.w	r0, [sl]
                MATRES tmp = (MATRES)A[i * N + k] * (MATRES)B[k * N + j];
    edfc:	f9b6 0004 	ldrsh.w	r0, [r6, #4]
    ee00:	f937 602c 	ldrsh.w	r6, [r7, ip, lsl #2]
                C[i * N + j] += bit_extract(tmp, 2, 4) * bit_extract(tmp, 5, 7);
    ee04:	f841 3029 	str.w	r3, [r1, r9, lsl #2]
                MATRES tmp = (MATRES)A[i * N + k] * (MATRES)B[k * N + j];
    ee08:	4370      	muls	r0, r6
                C[i * N + j] += bit_extract(tmp, 2, 4) * bit_extract(tmp, 5, 7);
    ee0a:	f3c0 0683 	ubfx	r6, r0, #2, #4
    ee0e:	f3c0 1046 	ubfx	r0, r0, #5, #7
    ee12:	f8da 5000 	ldr.w	r5, [sl]
    ee16:	fb16 3000 	smlabb	r0, r6, r0, r3
    ee1a:	1c6b      	adds	r3, r5, #1
    ee1c:	f8ca 3000 	str.w	r3, [sl]
                MATRES tmp = (MATRES)A[i * N + k] * (MATRES)B[k * N + j];
    ee20:	9e32      	ldr	r6, [sp, #200]	; 0xc8
    ee22:	f938 3f08 	ldrsh.w	r3, [r8, #8]!
    ee26:	5fbe      	ldrsh	r6, [r7, r6]
                C[i * N + j] += bit_extract(tmp, 2, 4) * bit_extract(tmp, 5, 7);
    ee28:	f841 0029 	str.w	r0, [r1, r9, lsl #2]
                MATRES tmp = (MATRES)A[i * N + k] * (MATRES)B[k * N + j];
    ee2c:	4373      	muls	r3, r6
                C[i * N + j] += bit_extract(tmp, 2, 4) * bit_extract(tmp, 5, 7);
    ee2e:	f3c3 0683 	ubfx	r6, r3, #2, #4
    ee32:	f3c3 1346 	ubfx	r3, r3, #5, #7
    ee36:	f8da 4000 	ldr.w	r4, [sl]
    ee3a:	fb16 0e03 	smlabb	lr, r6, r3, r0
    ee3e:	1c60      	adds	r0, r4, #1
    ee40:	f8ca 0000 	str.w	r0, [sl]
            for (k = 0; k < N; k++)
    ee44:	9833      	ldr	r0, [sp, #204]	; 0xcc
    ee46:	3204      	adds	r2, #4
    ee48:	4290      	cmp	r0, r2
    ee4a:	9831      	ldr	r0, [sp, #196]	; 0xc4
                C[i * N + j] += bit_extract(tmp, 2, 4) * bit_extract(tmp, 5, 7);
    ee4c:	f841 e029 	str.w	lr, [r1, r9, lsl #2]
            for (k = 0; k < N; k++)
    ee50:	4407      	add	r7, r0
    ee52:	d1af      	bne.n	edb4 <matrix_test+0xbd0>
    ee54:	9e25      	ldr	r6, [sp, #148]	; 0x94
    ee56:	4688      	mov	r8, r1
    ee58:	f8dd a0a0 	ldr.w	sl, [sp, #160]	; 0xa0
    ee5c:	9920      	ldr	r1, [sp, #128]	; 0x80
    ee5e:	9c2d      	ldr	r4, [sp, #180]	; 0xb4
    ee60:	2e00      	cmp	r6, #0
    ee62:	d087      	beq.n	ed74 <matrix_test+0xb90>
                MATRES tmp = (MATRES)A[i * N + k] * (MATRES)B[k * N + j];
    ee64:	fb02 430c 	mla	r3, r2, ip, r4
    ee68:	9c29      	ldr	r4, [sp, #164]	; 0xa4
    ee6a:	1850      	adds	r0, r2, r1
    ee6c:	f934 0010 	ldrsh.w	r0, [r4, r0, lsl #1]
    ee70:	f93a 3013 	ldrsh.w	r3, [sl, r3, lsl #1]
    ee74:	f240 0430 	movw	r4, #48	; 0x30
    ee78:	4358      	muls	r0, r3
    ee7a:	f2c1 0400 	movt	r4, #4096	; 0x1000
                C[i * N + j] += bit_extract(tmp, 2, 4) * bit_extract(tmp, 5, 7);
    ee7e:	f3c0 0383 	ubfx	r3, r0, #2, #4
    ee82:	f3c0 1046 	ubfx	r0, r0, #5, #7
    ee86:	4625      	mov	r5, r4
    ee88:	6824      	ldr	r4, [r4, #0]
    ee8a:	fb13 e700 	smlabb	r7, r3, r0, lr
    ee8e:	1c60      	adds	r0, r4, #1
    ee90:	9c2d      	ldr	r4, [sp, #180]	; 0xb4
            for (k = 0; k < N; k++)
    ee92:	2e01      	cmp	r6, #1
                C[i * N + j] += bit_extract(tmp, 2, 4) * bit_extract(tmp, 5, 7);
    ee94:	6028      	str	r0, [r5, #0]
    ee96:	f848 7029 	str.w	r7, [r8, r9, lsl #2]
            for (k = 0; k < N; k++)
    ee9a:	f43f af6b 	beq.w	ed74 <matrix_test+0xb90>
    ee9e:	1c50      	adds	r0, r2, #1
                MATRES tmp = (MATRES)A[i * N + k] * (MATRES)B[k * N + j];
    eea0:	1843      	adds	r3, r0, r1
    eea2:	fb00 400c 	mla	r0, r0, ip, r4
    eea6:	9e29      	ldr	r6, [sp, #164]	; 0xa4
    eea8:	f93a 0010 	ldrsh.w	r0, [sl, r0, lsl #1]
    eeac:	f936 3013 	ldrsh.w	r3, [r6, r3, lsl #1]
    eeb0:	f240 0630 	movw	r6, #48	; 0x30
    eeb4:	4358      	muls	r0, r3
    eeb6:	f2c1 0600 	movt	r6, #4096	; 0x1000
                C[i * N + j] += bit_extract(tmp, 2, 4) * bit_extract(tmp, 5, 7);
    eeba:	f3c0 0383 	ubfx	r3, r0, #2, #4
    eebe:	f3c0 1046 	ubfx	r0, r0, #5, #7
    eec2:	4635      	mov	r5, r6
    eec4:	6836      	ldr	r6, [r6, #0]
    eec6:	fb13 7700 	smlabb	r7, r3, r0, r7
    eeca:	1c70      	adds	r0, r6, #1
    eecc:	9e25      	ldr	r6, [sp, #148]	; 0x94
    eece:	6028      	str	r0, [r5, #0]
            for (k = 0; k < N; k++)
    eed0:	2e02      	cmp	r6, #2
                C[i * N + j] += bit_extract(tmp, 2, 4) * bit_extract(tmp, 5, 7);
    eed2:	f848 7029 	str.w	r7, [r8, r9, lsl #2]
            for (k = 0; k < N; k++)
    eed6:	f43f af4d 	beq.w	ed74 <matrix_test+0xb90>
    eeda:	1c90      	adds	r0, r2, #2
                MATRES tmp = (MATRES)A[i * N + k] * (MATRES)B[k * N + j];
    eedc:	1842      	adds	r2, r0, r1
    eede:	fb00 400c 	mla	r0, r0, ip, r4
    eee2:	9b29      	ldr	r3, [sp, #164]	; 0xa4
    eee4:	f93a 0010 	ldrsh.w	r0, [sl, r0, lsl #1]
    eee8:	f933 2012 	ldrsh.w	r2, [r3, r2, lsl #1]
    eeec:	f240 0330 	movw	r3, #48	; 0x30
    eef0:	4350      	muls	r0, r2
    eef2:	f2c1 0300 	movt	r3, #4096	; 0x1000
                C[i * N + j] += bit_extract(tmp, 2, 4) * bit_extract(tmp, 5, 7);
    eef6:	f3c0 0283 	ubfx	r2, r0, #2, #4
    eefa:	f3c0 1046 	ubfx	r0, r0, #5, #7
    eefe:	461e      	mov	r6, r3
    ef00:	681b      	ldr	r3, [r3, #0]
    ef02:	fb12 7000 	smlabb	r0, r2, r0, r7
    ef06:	1c5a      	adds	r2, r3, #1
    ef08:	6032      	str	r2, [r6, #0]
    ef0a:	f848 0029 	str.w	r0, [r8, r9, lsl #2]
    ef0e:	e731      	b.n	ed74 <matrix_test+0xb90>
    ef10:	f240 0030 	movw	r0, #48	; 0x30
    ef14:	f2c1 0000 	movt	r0, #4096	; 0x1000
    ef18:	4602      	mov	r2, r0
    crc = crc16(matrix_sum(N, C, clipval), crc);
    ef1a:	6800      	ldr	r0, [r0, #0]
    ef1c:	4661      	mov	r1, ip
    ef1e:	3001      	adds	r0, #1
    ef20:	9002      	str	r0, [sp, #8]
    ef22:	6010      	str	r0, [r2, #0]
    ef24:	9c2e      	ldr	r4, [sp, #184]	; 0xb8
    ef26:	f8dd e0cc 	ldr.w	lr, [sp, #204]	; 0xcc
    for (i = 0; i < N; i++)
    ef2a:	f1a8 0c10 	sub.w	ip, r8, #16
    ef2e:	ea4f 0881 	mov.w	r8, r1, lsl #2
    ef32:	f04f 0b00 	mov.w	fp, #0
    ef36:	f04f 0900 	mov.w	r9, #0
    ef3a:	2100      	movs	r1, #0
    ef3c:	f04f 0a00 	mov.w	sl, #0
        for (j = 0; j < N; j++)
    ef40:	9822      	ldr	r0, [sp, #136]	; 0x88
    ef42:	2700      	movs	r7, #0
    ef44:	2803      	cmp	r0, #3
    ef46:	d357      	bcc.n	eff8 <matrix_test+0xe14>
    ef48:	e017      	b.n	ef7a <matrix_test+0xd96>
            cur = C[i * N + j];
    ef4a:	68b8      	ldr	r0, [r7, #8]
            if (tmp > clipval)
    ef4c:	4290      	cmp	r0, r2
    ef4e:	f04f 0200 	mov.w	r2, #0
            tmp += cur;
    ef52:	4401      	add	r1, r0
            if (tmp > clipval)
    ef54:	bfc8      	it	gt
    ef56:	2201      	movgt	r2, #1
    ef58:	42a1      	cmp	r1, r4
    ef5a:	bfc4      	itt	gt
    ef5c:	220a      	movgt	r2, #10
    ef5e:	2100      	movgt	r1, #0
    ef60:	4491      	add	r9, r2
    ef62:	bf00      	nop
    for (i = 0; i < N; i++)
    ef64:	9a34      	ldr	r2, [sp, #208]	; 0xd0
    ef66:	f10b 0b01 	add.w	fp, fp, #1
    ef6a:	44c4      	add	ip, r8
    ef6c:	4593      	cmp	fp, r2
    ef6e:	4682      	mov	sl, r0
    ef70:	d06c      	beq.n	f04c <matrix_test+0xe68>
        for (j = 0; j < N; j++)
    ef72:	9822      	ldr	r0, [sp, #136]	; 0x88
    ef74:	2700      	movs	r7, #0
    ef76:	2803      	cmp	r0, #3
    ef78:	d33e      	bcc.n	eff8 <matrix_test+0xe14>
    ef7a:	4660      	mov	r0, ip
            cur = C[i * N + j];
    ef7c:	f850 4f10 	ldr.w	r4, [r0, #16]!
            if (tmp > clipval)
    ef80:	2200      	movs	r2, #0
    ef82:	4554      	cmp	r4, sl
    ef84:	bfc8      	it	gt
    ef86:	2201      	movgt	r2, #1
    ef88:	9b2e      	ldr	r3, [sp, #184]	; 0xb8
            tmp += cur;
    ef8a:	4421      	add	r1, r4
            if (tmp > clipval)
    ef8c:	4299      	cmp	r1, r3
    ef8e:	bfc8      	it	gt
    ef90:	220a      	movgt	r2, #10
            cur = C[i * N + j];
    ef92:	f100 0a04 	add.w	sl, r0, #4
    ef96:	eb09 0502 	add.w	r5, r9, r2
    ef9a:	e89a 040c 	ldmia.w	sl, {r2, r3, sl}
            tmp += cur;
    ef9e:	9e2e      	ldr	r6, [sp, #184]	; 0xb8
        for (j = 0; j < N; j++)
    efa0:	3704      	adds	r7, #4
            tmp += cur;
    efa2:	42b1      	cmp	r1, r6
    efa4:	4616      	mov	r6, r2
    efa6:	bfd8      	it	le
    efa8:	440e      	addle	r6, r1
            if (tmp > clipval)
    efaa:	2100      	movs	r1, #0
    efac:	42a2      	cmp	r2, r4
    efae:	bfc8      	it	gt
    efb0:	2101      	movgt	r1, #1
    efb2:	9c2e      	ldr	r4, [sp, #184]	; 0xb8
    efb4:	42a6      	cmp	r6, r4
            tmp += cur;
    efb6:	461c      	mov	r4, r3
            if (tmp > clipval)
    efb8:	bfc8      	it	gt
    efba:	210a      	movgt	r1, #10
            tmp += cur;
    efbc:	bfd8      	it	le
    efbe:	4434      	addle	r4, r6
            if (tmp > clipval)
    efc0:	4293      	cmp	r3, r2
    efc2:	f04f 0200 	mov.w	r2, #0
    efc6:	4429      	add	r1, r5
    efc8:	bfc8      	it	gt
    efca:	2201      	movgt	r2, #1
    efcc:	9d2e      	ldr	r5, [sp, #184]	; 0xb8
    efce:	42ac      	cmp	r4, r5
    efd0:	bfc8      	it	gt
    efd2:	220a      	movgt	r2, #10
    efd4:	440a      	add	r2, r1
            tmp += cur;
    efd6:	4651      	mov	r1, sl
    efd8:	bfd8      	it	le
    efda:	4421      	addle	r1, r4
    efdc:	9c2e      	ldr	r4, [sp, #184]	; 0xb8
            if (tmp > clipval)
    efde:	459a      	cmp	sl, r3
    efe0:	f04f 0300 	mov.w	r3, #0
    efe4:	bfc8      	it	gt
    efe6:	2301      	movgt	r3, #1
    efe8:	42a1      	cmp	r1, r4
    efea:	bfc4      	itt	gt
    efec:	230a      	movgt	r3, #10
    efee:	2100      	movgt	r1, #0
        for (j = 0; j < N; j++)
    eff0:	45be      	cmp	lr, r7
    eff2:	eb02 0903 	add.w	r9, r2, r3
    eff6:	d1c1      	bne.n	ef7c <matrix_test+0xd98>
    eff8:	9d25      	ldr	r5, [sp, #148]	; 0x94
            cur = C[i * N + j];
    effa:	4650      	mov	r0, sl
        for (j = 0; j < N; j++)
    effc:	2d00      	cmp	r5, #0
    effe:	d0b1      	beq.n	ef64 <matrix_test+0xd80>
    f000:	9834      	ldr	r0, [sp, #208]	; 0xd0
    f002:	9b2a      	ldr	r3, [sp, #168]	; 0xa8
    f004:	fb0b f000 	mul.w	r0, fp, r0
            cur = C[i * N + j];
    f008:	4407      	add	r7, r0
    f00a:	f853 0027 	ldr.w	r0, [r3, r7, lsl #2]
            if (tmp > clipval)
    f00e:	2200      	movs	r2, #0
            tmp += cur;
    f010:	4401      	add	r1, r0
            if (tmp > clipval)
    f012:	4550      	cmp	r0, sl
    f014:	bfc8      	it	gt
    f016:	2201      	movgt	r2, #1
    f018:	42a1      	cmp	r1, r4
    f01a:	bfc4      	itt	gt
    f01c:	220a      	movgt	r2, #10
    f01e:	2100      	movgt	r1, #0
        for (j = 0; j < N; j++)
    f020:	2d01      	cmp	r5, #1
    f022:	4491      	add	r9, r2
    f024:	d09e      	beq.n	ef64 <matrix_test+0xd80>
            cur = C[i * N + j];
    f026:	eb03 0787 	add.w	r7, r3, r7, lsl #2
    f02a:	687a      	ldr	r2, [r7, #4]
            tmp += cur;
    f02c:	4411      	add	r1, r2
            if (tmp > clipval)
    f02e:	4282      	cmp	r2, r0
    f030:	f04f 0000 	mov.w	r0, #0
    f034:	bfc8      	it	gt
    f036:	2001      	movgt	r0, #1
    f038:	42a1      	cmp	r1, r4
    f03a:	bfc4      	itt	gt
    f03c:	200a      	movgt	r0, #10
    f03e:	2100      	movgt	r1, #0
        for (j = 0; j < N; j++)
    f040:	2d02      	cmp	r5, #2
    f042:	4481      	add	r9, r0
    f044:	f47f af81 	bne.w	ef4a <matrix_test+0xd66>
            cur = C[i * N + j];
    f048:	4610      	mov	r0, r2
    f04a:	e78b      	b.n	ef64 <matrix_test+0xd80>
    f04c:	f8dd b0a4 	ldr.w	fp, [sp, #164]	; 0xa4
    f050:	f240 0430 	movw	r4, #48	; 0x30
    f054:	9a08      	ldr	r2, [sp, #32]
    f056:	9902      	ldr	r1, [sp, #8]
    f058:	f2c1 0400 	movt	r4, #4096	; 0x1000
    f05c:	e003      	b.n	f066 <matrix_test+0xe82>
    crc = crc16(matrix_sum(N, C, clipval), crc);
    f05e:	3102      	adds	r1, #2
    f060:	6021      	str	r1, [r4, #0]
    f062:	f04f 0900 	mov.w	r9, #0
    f066:	1c48      	adds	r0, r1, #1
    f068:	6020      	str	r0, [r4, #0]
    f06a:	1c88      	adds	r0, r1, #2
    f06c:	6020      	str	r0, [r4, #0]
    f06e:	fa1f f089 	uxth.w	r0, r9
    f072:	4611      	mov	r1, r2
    f074:	f000 fa65 	bl	f542 <crcu16>
    matrix_add_const(N, A, -val); /* return matrix to initial value */
    f078:	6821      	ldr	r1, [r4, #0]
    for (i = 0; i < N; i++)
    f07a:	9a34      	ldr	r2, [sp, #208]	; 0xd0
    matrix_add_const(N, A, -val); /* return matrix to initial value */
    f07c:	3101      	adds	r1, #1
    for (i = 0; i < N; i++)
    f07e:	2a00      	cmp	r2, #0
    f080:	9009      	str	r0, [sp, #36]	; 0x24
    matrix_add_const(N, A, -val); /* return matrix to initial value */
    f082:	6021      	str	r1, [r4, #0]
    for (i = 0; i < N; i++)
    f084:	d079      	beq.n	f17a <matrix_test+0xf96>
    f086:	9934      	ldr	r1, [sp, #208]	; 0xd0
    f088:	f1ab 0902 	sub.w	r9, fp, #2
    f08c:	f001 0e03 	and.w	lr, r1, #3
    f090:	1e48      	subs	r0, r1, #1
    f092:	eba1 030e 	sub.w	r3, r1, lr
    f096:	ea4f 0841 	mov.w	r8, r1, lsl #1
    f09a:	f04f 0a00 	mov.w	sl, #0
    f09e:	465a      	mov	r2, fp
    f0a0:	900c      	str	r0, [sp, #48]	; 0x30
        for (j = 0; j < N; j++)
    f0a2:	980c      	ldr	r0, [sp, #48]	; 0x30
    f0a4:	2600      	movs	r6, #0
    f0a6:	2803      	cmp	r0, #3
    f0a8:	d334      	bcc.n	f114 <matrix_test+0xf30>
    f0aa:	e00a      	b.n	f0c2 <matrix_test+0xede>
    for (i = 0; i < N; i++)
    f0ac:	9934      	ldr	r1, [sp, #208]	; 0xd0
    f0ae:	f10a 0a01 	add.w	sl, sl, #1
    f0b2:	44c1      	add	r9, r8
    f0b4:	458a      	cmp	sl, r1
    f0b6:	4442      	add	r2, r8
    f0b8:	d05f      	beq.n	f17a <matrix_test+0xf96>
        for (j = 0; j < N; j++)
    f0ba:	980c      	ldr	r0, [sp, #48]	; 0x30
    f0bc:	2600      	movs	r6, #0
    f0be:	2803      	cmp	r0, #3
    f0c0:	d328      	bcc.n	f114 <matrix_test+0xf30>
    f0c2:	f8dd c0f8 	ldr.w	ip, [sp, #248]	; 0xf8
    f0c6:	f240 0030 	movw	r0, #48	; 0x30
    f0ca:	464f      	mov	r7, r9
    f0cc:	f2c1 0000 	movt	r0, #4096	; 0x1000
            A[i * N + j] += val;
    f0d0:	887c      	ldrh	r4, [r7, #2]
    f0d2:	6805      	ldr	r5, [r0, #0]
    f0d4:	eba4 040c 	sub.w	r4, r4, ip
    f0d8:	3501      	adds	r5, #1
    f0da:	6005      	str	r5, [r0, #0]
    f0dc:	807c      	strh	r4, [r7, #2]
    f0de:	eb02 0446 	add.w	r4, r2, r6, lsl #1
    f0e2:	8865      	ldrh	r5, [r4, #2]
    f0e4:	6801      	ldr	r1, [r0, #0]
    f0e6:	eba5 050c 	sub.w	r5, r5, ip
    f0ea:	3101      	adds	r1, #1
    f0ec:	6001      	str	r1, [r0, #0]
    f0ee:	8065      	strh	r5, [r4, #2]
    f0f0:	88a1      	ldrh	r1, [r4, #4]
    f0f2:	6805      	ldr	r5, [r0, #0]
    f0f4:	eba1 010c 	sub.w	r1, r1, ip
    f0f8:	3501      	adds	r5, #1
    f0fa:	6005      	str	r5, [r0, #0]
    f0fc:	80a1      	strh	r1, [r4, #4]
    f0fe:	f837 1f08 	ldrh.w	r1, [r7, #8]!
    f102:	6804      	ldr	r4, [r0, #0]
        for (j = 0; j < N; j++)
    f104:	3604      	adds	r6, #4
            A[i * N + j] += val;
    f106:	eba1 010c 	sub.w	r1, r1, ip
    f10a:	3401      	adds	r4, #1
        for (j = 0; j < N; j++)
    f10c:	42b3      	cmp	r3, r6
            A[i * N + j] += val;
    f10e:	6004      	str	r4, [r0, #0]
    f110:	8039      	strh	r1, [r7, #0]
        for (j = 0; j < N; j++)
    f112:	d1dd      	bne.n	f0d0 <matrix_test+0xeec>
    f114:	f1be 0f00 	cmp.w	lr, #0
    f118:	d0c8      	beq.n	f0ac <matrix_test+0xec8>
    f11a:	9934      	ldr	r1, [sp, #208]	; 0xd0
    f11c:	f240 0030 	movw	r0, #48	; 0x30
    f120:	fb0a f101 	mul.w	r1, sl, r1
            A[i * N + j] += val;
    f124:	440e      	add	r6, r1
    f126:	f2c1 0000 	movt	r0, #4096	; 0x1000
    f12a:	f83b 1016 	ldrh.w	r1, [fp, r6, lsl #1]
    f12e:	6804      	ldr	r4, [r0, #0]
    f130:	9f3e      	ldr	r7, [sp, #248]	; 0xf8
    f132:	3401      	adds	r4, #1
    f134:	1bc9      	subs	r1, r1, r7
        for (j = 0; j < N; j++)
    f136:	f1be 0f01 	cmp.w	lr, #1
            A[i * N + j] += val;
    f13a:	6004      	str	r4, [r0, #0]
    f13c:	f82b 1016 	strh.w	r1, [fp, r6, lsl #1]
        for (j = 0; j < N; j++)
    f140:	d0b4      	beq.n	f0ac <matrix_test+0xec8>
    f142:	f240 0030 	movw	r0, #48	; 0x30
            A[i * N + j] += val;
    f146:	eb0b 0646 	add.w	r6, fp, r6, lsl #1
    f14a:	f2c1 0000 	movt	r0, #4096	; 0x1000
    f14e:	8871      	ldrh	r1, [r6, #2]
    f150:	6804      	ldr	r4, [r0, #0]
    f152:	9f3e      	ldr	r7, [sp, #248]	; 0xf8
    f154:	3401      	adds	r4, #1
    f156:	1bc9      	subs	r1, r1, r7
        for (j = 0; j < N; j++)
    f158:	f1be 0f02 	cmp.w	lr, #2
            A[i * N + j] += val;
    f15c:	6004      	str	r4, [r0, #0]
    f15e:	8071      	strh	r1, [r6, #2]
        for (j = 0; j < N; j++)
    f160:	d0a4      	beq.n	f0ac <matrix_test+0xec8>
    f162:	f240 0030 	movw	r0, #48	; 0x30
    f166:	f2c1 0000 	movt	r0, #4096	; 0x1000
            A[i * N + j] += val;
    f16a:	88b1      	ldrh	r1, [r6, #4]
    f16c:	6804      	ldr	r4, [r0, #0]
    f16e:	9f3e      	ldr	r7, [sp, #248]	; 0xf8
    f170:	3401      	adds	r4, #1
    f172:	1bc9      	subs	r1, r1, r7
    f174:	6004      	str	r4, [r0, #0]
    f176:	80b1      	strh	r1, [r6, #4]
    f178:	e798      	b.n	f0ac <matrix_test+0xec8>
    return crc;
    f17a:	9809      	ldr	r0, [sp, #36]	; 0x24
    f17c:	b200      	sxth	r0, r0
    f17e:	b035      	add	sp, #212	; 0xd4
    f180:	e8bd 8ff0 	ldmia.w	sp!, {r4, r5, r6, r7, r8, r9, sl, fp, pc}

0000f184 <core_bench_state>:
{
    f184:	e92d 4ff0 	stmdb	sp!, {r4, r5, r6, r7, r8, r9, sl, fp, lr}
    f188:	b093      	sub	sp, #76	; 0x4c
    f18a:	9001      	str	r0, [sp, #4]
    f18c:	2000      	movs	r0, #0
        final_counts[i] = track_counts[i] = 0;
    f18e:	e9cd 0003 	strd	r0, r0, [sp, #12]
    f192:	e9cd 0005 	strd	r0, r0, [sp, #20]
    f196:	e9cd 0007 	strd	r0, r0, [sp, #28]
    f19a:	e9cd 0009 	strd	r0, r0, [sp, #36]	; 0x24
    f19e:	e9cd 000b 	strd	r0, r0, [sp, #44]	; 0x2c
    f1a2:	e9cd 000d 	strd	r0, r0, [sp, #52]	; 0x34
    f1a6:	e9cd 000f 	strd	r0, r0, [sp, #60]	; 0x3c
    f1aa:	e9cd 0011 	strd	r0, r0, [sp, #68]	; 0x44
    while (*p != 0)
    f1ae:	7808      	ldrb	r0, [r1, #0]
    p = memblock;
    f1b0:	f240 0730 	movw	r7, #48	; 0x30
    f1b4:	4699      	mov	r9, r3
    f1b6:	4692      	mov	sl, r2
    f1b8:	460d      	mov	r5, r1
    f1ba:	f2c1 0700 	movt	r7, #4096	; 0x1000
    ee_u8 *p = memblock;
    f1be:	9102      	str	r1, [sp, #8]
    while (*p != 0)
    f1c0:	b1b8      	cbz	r0, f1f2 <core_bench_state+0x6e>
        enum CORE_STATE fstate = core_state_transition(&p, track_counts);
    f1c2:	6839      	ldr	r1, [r7, #0]
    f1c4:	f10d 0808 	add.w	r8, sp, #8
    f1c8:	ac03      	add	r4, sp, #12
    f1ca:	ae0b      	add	r6, sp, #44	; 0x2c
    f1cc:	1c48      	adds	r0, r1, #1
    f1ce:	6038      	str	r0, [r7, #0]
    f1d0:	4640      	mov	r0, r8
    f1d2:	4621      	mov	r1, r4
    f1d4:	f000 f89a 	bl	f30c <core_state_transition>
        final_counts[fstate]++;
    f1d8:	6839      	ldr	r1, [r7, #0]
    f1da:	f856 2020 	ldr.w	r2, [r6, r0, lsl #2]
    f1de:	3101      	adds	r1, #1
    f1e0:	6039      	str	r1, [r7, #0]
    while (*p != 0)
    f1e2:	9b02      	ldr	r3, [sp, #8]
        final_counts[fstate]++;
    f1e4:	3201      	adds	r2, #1
    while (*p != 0)
    f1e6:	781b      	ldrb	r3, [r3, #0]
        final_counts[fstate]++;
    f1e8:	f846 2020 	str.w	r2, [r6, r0, lsl #2]
    while (*p != 0)
    f1ec:	2b00      	cmp	r3, #0
    f1ee:	d1ed      	bne.n	f1cc <core_bench_state+0x48>
    f1f0:	e000      	b.n	f1f4 <core_bench_state+0x70>
    p = memblock;
    f1f2:	6839      	ldr	r1, [r7, #0]
    f1f4:	1c48      	adds	r0, r1, #1
    f1f6:	6038      	str	r0, [r7, #0]
    f1f8:	9901      	ldr	r1, [sp, #4]
    f1fa:	f8dd b070 	ldr.w	fp, [sp, #112]	; 0x70
    while (p < (memblock + blksize))
    f1fe:	2901      	cmp	r1, #1
    f200:	eb05 0801 	add.w	r8, r5, r1
    f204:	9502      	str	r5, [sp, #8]
    f206:	db13      	blt.n	f230 <core_bench_state+0xac>
    f208:	4629      	mov	r1, r5
        if (*p != ',')
    f20a:	780a      	ldrb	r2, [r1, #0]
    f20c:	2a2c      	cmp	r2, #44	; 0x2c
    f20e:	d108      	bne.n	f222 <core_bench_state+0x9e>
        p += step;
    f210:	4459      	add	r1, fp
    f212:	3001      	adds	r0, #1
    while (p < (memblock + blksize))
    f214:	4541      	cmp	r1, r8
        p += step;
    f216:	6038      	str	r0, [r7, #0]
    f218:	9102      	str	r1, [sp, #8]
    while (p < (memblock + blksize))
    f21a:	d209      	bcs.n	f230 <core_bench_state+0xac>
        if (*p != ',')
    f21c:	780a      	ldrb	r2, [r1, #0]
    f21e:	2a2c      	cmp	r2, #44	; 0x2c
    f220:	d0f6      	beq.n	f210 <core_bench_state+0x8c>
            *p ^= (ee_u8)seed1;
    f222:	ea82 020a 	eor.w	r2, r2, sl
    f226:	3001      	adds	r0, #1
    f228:	6038      	str	r0, [r7, #0]
    f22a:	700a      	strb	r2, [r1, #0]
        p += step;
    f22c:	6838      	ldr	r0, [r7, #0]
    f22e:	e7ef      	b.n	f210 <core_bench_state+0x8c>
    p = memblock;
    f230:	1c41      	adds	r1, r0, #1
    f232:	6039      	str	r1, [r7, #0]
    while (*p != 0)
    f234:	7828      	ldrb	r0, [r5, #0]
    p = memblock;
    f236:	9502      	str	r5, [sp, #8]
    while (*p != 0)
    f238:	b1b0      	cbz	r0, f268 <core_bench_state+0xe4>
    f23a:	f10d 0a08 	add.w	sl, sp, #8
    f23e:	ac03      	add	r4, sp, #12
    f240:	ae0b      	add	r6, sp, #44	; 0x2c
    f242:	bf00      	nop
        enum CORE_STATE fstate = core_state_transition(&p, track_counts);
    f244:	1c48      	adds	r0, r1, #1
    f246:	6038      	str	r0, [r7, #0]
    f248:	4650      	mov	r0, sl
    f24a:	4621      	mov	r1, r4
    f24c:	f000 f85e 	bl	f30c <core_state_transition>
        final_counts[fstate]++;
    f250:	6839      	ldr	r1, [r7, #0]
    f252:	f856 2020 	ldr.w	r2, [r6, r0, lsl #2]
    f256:	3101      	adds	r1, #1
    f258:	6039      	str	r1, [r7, #0]
    while (*p != 0)
    f25a:	9b02      	ldr	r3, [sp, #8]
        final_counts[fstate]++;
    f25c:	3201      	adds	r2, #1
    while (*p != 0)
    f25e:	781b      	ldrb	r3, [r3, #0]
        final_counts[fstate]++;
    f260:	f846 2020 	str.w	r2, [r6, r0, lsl #2]
    while (*p != 0)
    f264:	2b00      	cmp	r3, #0
    f266:	d1ed      	bne.n	f244 <core_bench_state+0xc0>
    p = memblock;
    f268:	3101      	adds	r1, #1
    f26a:	6039      	str	r1, [r7, #0]
    while (p < (memblock + blksize))
    f26c:	9801      	ldr	r0, [sp, #4]
    f26e:	9502      	str	r5, [sp, #8]
    f270:	2801      	cmp	r0, #1
    f272:	da07      	bge.n	f284 <core_bench_state+0x100>
    f274:	e010      	b.n	f298 <core_bench_state+0x114>
    f276:	bf00      	nop
        p += step;
    f278:	445d      	add	r5, fp
    f27a:	3101      	adds	r1, #1
    while (p < (memblock + blksize))
    f27c:	4545      	cmp	r5, r8
        p += step;
    f27e:	6039      	str	r1, [r7, #0]
    f280:	9502      	str	r5, [sp, #8]
    while (p < (memblock + blksize))
    f282:	d209      	bcs.n	f298 <core_bench_state+0x114>
        if (*p != ',')
    f284:	7828      	ldrb	r0, [r5, #0]
    f286:	282c      	cmp	r0, #44	; 0x2c
    f288:	d0f6      	beq.n	f278 <core_bench_state+0xf4>
            *p ^= (ee_u8)seed2;
    f28a:	ea80 0009 	eor.w	r0, r0, r9
    f28e:	3101      	adds	r1, #1
    f290:	6039      	str	r1, [r7, #0]
    f292:	7028      	strb	r0, [r5, #0]
        p += step;
    f294:	6839      	ldr	r1, [r7, #0]
    f296:	e7ef      	b.n	f278 <core_bench_state+0xf4>
    f298:	981d      	ldr	r0, [sp, #116]	; 0x74
    f29a:	2400      	movs	r4, #0
    f29c:	f10d 082c 	add.w	r8, sp, #44	; 0x2c
    f2a0:	ae03      	add	r6, sp, #12
    f2a2:	bf00      	nop
        crc = crcu32(final_counts[i], crc);
    f2a4:	f858 5024 	ldr.w	r5, [r8, r4, lsl #2]
    f2a8:	1c4a      	adds	r2, r1, #1
    f2aa:	603a      	str	r2, [r7, #0]
    crc = crc16((ee_s16)newval, crc);
    f2ac:	1c8a      	adds	r2, r1, #2
    f2ae:	603a      	str	r2, [r7, #0]
    return crcu16((ee_u16)newval, crc);
    f2b0:	3103      	adds	r1, #3
    f2b2:	b2aa      	uxth	r2, r5
    f2b4:	6039      	str	r1, [r7, #0]
    f2b6:	b281      	uxth	r1, r0
    f2b8:	4610      	mov	r0, r2
    f2ba:	f000 f942 	bl	f542 <crcu16>
    crc = crc16((ee_s16)(newval >> 16), crc);
    f2be:	683a      	ldr	r2, [r7, #0]
    return crcu16((ee_u16)newval, crc);
    f2c0:	4601      	mov	r1, r0
    crc = crc16((ee_s16)(newval >> 16), crc);
    f2c2:	0c28      	lsrs	r0, r5, #16
    f2c4:	1c53      	adds	r3, r2, #1
    return crcu16((ee_u16)newval, crc);
    f2c6:	3202      	adds	r2, #2
    crc = crc16((ee_s16)(newval >> 16), crc);
    f2c8:	603b      	str	r3, [r7, #0]
    return crcu16((ee_u16)newval, crc);
    f2ca:	603a      	str	r2, [r7, #0]
    f2cc:	f000 f939 	bl	f542 <crcu16>
    f2d0:	4601      	mov	r1, r0
        crc = crcu32(track_counts[i], crc);
    f2d2:	6838      	ldr	r0, [r7, #0]
    f2d4:	f856 5024 	ldr.w	r5, [r6, r4, lsl #2]
    f2d8:	1c42      	adds	r2, r0, #1
    f2da:	603a      	str	r2, [r7, #0]
    crc = crc16((ee_s16)newval, crc);
    f2dc:	1c82      	adds	r2, r0, #2
    return crcu16((ee_u16)newval, crc);
    f2de:	3003      	adds	r0, #3
    crc = crc16((ee_s16)newval, crc);
    f2e0:	603a      	str	r2, [r7, #0]
    return crcu16((ee_u16)newval, crc);
    f2e2:	6038      	str	r0, [r7, #0]
    f2e4:	b2a8      	uxth	r0, r5
    f2e6:	f000 f92c 	bl	f542 <crcu16>
    crc = crc16((ee_s16)(newval >> 16), crc);
    f2ea:	683a      	ldr	r2, [r7, #0]
    return crcu16((ee_u16)newval, crc);
    f2ec:	4601      	mov	r1, r0
    crc = crc16((ee_s16)(newval >> 16), crc);
    f2ee:	0c28      	lsrs	r0, r5, #16
    f2f0:	1c53      	adds	r3, r2, #1
    return crcu16((ee_u16)newval, crc);
    f2f2:	3202      	adds	r2, #2
    crc = crc16((ee_s16)(newval >> 16), crc);
    f2f4:	603b      	str	r3, [r7, #0]
    return crcu16((ee_u16)newval, crc);
    f2f6:	603a      	str	r2, [r7, #0]
    f2f8:	f000 f923 	bl	f542 <crcu16>
    for (i = 0; i < NUM_CORE_STATES; i++)
    f2fc:	2c07      	cmp	r4, #7
    f2fe:	d002      	beq.n	f306 <core_bench_state+0x182>
        crc = crcu32(final_counts[i], crc);
    f300:	6839      	ldr	r1, [r7, #0]
    f302:	3401      	adds	r4, #1
    f304:	e7ce      	b.n	f2a4 <core_bench_state+0x120>
    return crc;
    f306:	b013      	add	sp, #76	; 0x4c
    f308:	e8bd 8ff0 	ldmia.w	sp!, {r4, r5, r6, r7, r8, r9, sl, fp, pc}

0000f30c <core_state_transition>:
   end state is returned (either specific format determined or invalid).
*/

enum CORE_STATE
core_state_transition(ee_u8 **instr, ee_u32 *transition_count)
{
    f30c:	e92d 43f0 	stmdb	sp!, {r4, r5, r6, r7, r8, r9, lr}
    ee_u8 *         str = *instr;
    f310:	6803      	ldr	r3, [r0, #0]
                break;
            default:
                break;
        }
    }
    *instr = str;
    f312:	f240 0230 	movw	r2, #48	; 0x30
    for (; *str && state != CORE_INVALID; str++)
    f316:	781e      	ldrb	r6, [r3, #0]
    f318:	4684      	mov	ip, r0
    f31a:	2e00      	cmp	r6, #0
    *instr = str;
    f31c:	f2c1 0200 	movt	r2, #4096	; 0x1000
    for (; *str && state != CORE_INVALID; str++)
    f320:	f000 80f9 	beq.w	f516 <core_state_transition+0x20a>
    f324:	f101 0e04 	add.w	lr, r1, #4
    f328:	f101 0810 	add.w	r8, r1, #16
    f32c:	f101 0914 	add.w	r9, r1, #20
    f330:	3301      	adds	r3, #1
    f332:	2000      	movs	r0, #0
        if (NEXT_SYMBOL == ',') /* end of this input */
    f334:	b2f7      	uxtb	r7, r6
    f336:	2f2c      	cmp	r7, #44	; 0x2c
    f338:	d119      	bne.n	f36e <core_state_transition+0x62>
    f33a:	e0ef      	b.n	f51c <core_state_transition+0x210>
    f33c:	68c8      	ldr	r0, [r1, #12]
    f33e:	6814      	ldr	r4, [r2, #0]
    f340:	3001      	adds	r0, #1
    f342:	3401      	adds	r4, #1
    f344:	6014      	str	r4, [r2, #0]
    f346:	60c8      	str	r0, [r1, #12]
    f348:	f1a6 002b 	sub.w	r0, r6, #43	; 0x2b
    f34c:	f010 0ffd 	tst.w	r0, #253	; 0xfd
    f350:	f04f 0001 	mov.w	r0, #1
    f354:	bf08      	it	eq
    f356:	2006      	moveq	r0, #6
    for (; *str && state != CORE_INVALID; str++)
    f358:	f813 6b01 	ldrb.w	r6, [r3], #1
    f35c:	2801      	cmp	r0, #1
    f35e:	bf18      	it	ne
    f360:	2e00      	cmpne	r6, #0
    f362:	f000 80da 	beq.w	f51a <core_state_transition+0x20e>
        if (NEXT_SYMBOL == ',') /* end of this input */
    f366:	b2f7      	uxtb	r7, r6
    f368:	2f2c      	cmp	r7, #44	; 0x2c
    f36a:	f000 80d7 	beq.w	f51c <core_state_transition+0x210>
    f36e:	2804      	cmp	r0, #4
    f370:	da18      	bge.n	f3a4 <core_state_transition+0x98>
    f372:	2802      	cmp	r0, #2
    f374:	da30      	bge.n	f3d8 <core_state_transition+0xcc>
    f376:	2800      	cmp	r0, #0
    f378:	d1ee      	bne.n	f358 <core_state_transition+0x4c>
                if (ee_isdigit(NEXT_SYMBOL))
    f37a:	6815      	ldr	r5, [r2, #0]
    retval = ((c >= '0') & (c <= '9')) ? 1 : 0;
    f37c:	f1a6 0030 	sub.w	r0, r6, #48	; 0x30
    f380:	b2c0      	uxtb	r0, r0
                if (ee_isdigit(NEXT_SYMBOL))
    f382:	1c6c      	adds	r4, r5, #1
    f384:	280a      	cmp	r0, #10
    f386:	6014      	str	r4, [r2, #0]
    f388:	f0c0 80ae 	bcc.w	f4e8 <core_state_transition+0x1dc>
                else if (NEXT_SYMBOL == '+' || NEXT_SYMBOL == '-')
    f38c:	2f2b      	cmp	r7, #43	; 0x2b
    f38e:	f04f 0002 	mov.w	r0, #2
    f392:	bf18      	it	ne
    f394:	2f2d      	cmpne	r7, #45	; 0x2d
    f396:	f000 80a8 	beq.w	f4ea <core_state_transition+0x1de>
    f39a:	2f2e      	cmp	r7, #46	; 0x2e
    f39c:	f040 80b2 	bne.w	f504 <core_state_transition+0x1f8>
    f3a0:	2005      	movs	r0, #5
    f3a2:	e0a2      	b.n	f4ea <core_state_transition+0x1de>
    f3a4:	2806      	cmp	r0, #6
    f3a6:	da31      	bge.n	f40c <core_state_transition+0x100>
    f3a8:	2805      	cmp	r0, #5
    f3aa:	d143      	bne.n	f434 <core_state_transition+0x128>
                if (NEXT_SYMBOL == 'E' || NEXT_SYMBOL == 'e')
    f3ac:	f046 0020 	orr.w	r0, r6, #32
    f3b0:	b2c0      	uxtb	r0, r0
    f3b2:	2865      	cmp	r0, #101	; 0x65
    f3b4:	d168      	bne.n	f488 <core_state_transition+0x17c>
                    transition_count[CORE_FLOAT]++;
    f3b6:	f8d9 0000 	ldr.w	r0, [r9]
    f3ba:	6814      	ldr	r4, [r2, #0]
    f3bc:	3001      	adds	r0, #1
    f3be:	3401      	adds	r4, #1
    f3c0:	6014      	str	r4, [r2, #0]
    f3c2:	f8c9 0000 	str.w	r0, [r9]
    f3c6:	2003      	movs	r0, #3
    for (; *str && state != CORE_INVALID; str++)
    f3c8:	f813 6b01 	ldrb.w	r6, [r3], #1
    f3cc:	2801      	cmp	r0, #1
    f3ce:	bf18      	it	ne
    f3d0:	2e00      	cmpne	r6, #0
    f3d2:	d1c8      	bne.n	f366 <core_state_transition+0x5a>
    f3d4:	e0a1      	b.n	f51a <core_state_transition+0x20e>
    f3d6:	bf00      	nop
    f3d8:	d1b0      	bne.n	f33c <core_state_transition+0x30>
                if (ee_isdigit(NEXT_SYMBOL))
    f3da:	6810      	ldr	r0, [r2, #0]
    retval = ((c >= '0') & (c <= '9')) ? 1 : 0;
    f3dc:	f1a6 0530 	sub.w	r5, r6, #48	; 0x30
    f3e0:	b2ed      	uxtb	r5, r5
                if (ee_isdigit(NEXT_SYMBOL))
    f3e2:	1c44      	adds	r4, r0, #1
    f3e4:	2d09      	cmp	r5, #9
    f3e6:	6014      	str	r4, [r2, #0]
    f3e8:	d95f      	bls.n	f4aa <core_state_transition+0x19e>
    f3ea:	688c      	ldr	r4, [r1, #8]
    f3ec:	3002      	adds	r0, #2
    f3ee:	3401      	adds	r4, #1
    f3f0:	6010      	str	r0, [r2, #0]
    f3f2:	2001      	movs	r0, #1
    f3f4:	608c      	str	r4, [r1, #8]
    f3f6:	2f2e      	cmp	r7, #46	; 0x2e
    f3f8:	bf08      	it	eq
    f3fa:	2005      	moveq	r0, #5
    for (; *str && state != CORE_INVALID; str++)
    f3fc:	f813 6b01 	ldrb.w	r6, [r3], #1
    f400:	2801      	cmp	r0, #1
    f402:	bf18      	it	ne
    f404:	2e00      	cmpne	r6, #0
    f406:	d1ae      	bne.n	f366 <core_state_transition+0x5a>
    f408:	e087      	b.n	f51a <core_state_transition+0x20e>
    f40a:	bf00      	nop
    f40c:	d025      	beq.n	f45a <core_state_transition+0x14e>
    f40e:	2807      	cmp	r0, #7
    f410:	d1a2      	bne.n	f358 <core_state_transition+0x4c>
                if (!ee_isdigit(NEXT_SYMBOL))
    f412:	6810      	ldr	r0, [r2, #0]
    retval = ((c >= '0') & (c <= '9')) ? 1 : 0;
    f414:	f1a6 0530 	sub.w	r5, r6, #48	; 0x30
    f418:	b2ed      	uxtb	r5, r5
                if (!ee_isdigit(NEXT_SYMBOL))
    f41a:	1c44      	adds	r4, r0, #1
    f41c:	2d0a      	cmp	r5, #10
    f41e:	6014      	str	r4, [r2, #0]
    f420:	f080 8086 	bcs.w	f530 <core_state_transition+0x224>
    f424:	2007      	movs	r0, #7
    for (; *str && state != CORE_INVALID; str++)
    f426:	f813 6b01 	ldrb.w	r6, [r3], #1
    f42a:	2801      	cmp	r0, #1
    f42c:	bf18      	it	ne
    f42e:	2e00      	cmpne	r6, #0
    f430:	d199      	bne.n	f366 <core_state_transition+0x5a>
    f432:	e072      	b.n	f51a <core_state_transition+0x20e>
                if (NEXT_SYMBOL == '.')
    f434:	2f2e      	cmp	r7, #46	; 0x2e
    f436:	d146      	bne.n	f4c6 <core_state_transition+0x1ba>
                    transition_count[CORE_INT]++;
    f438:	f8d8 0000 	ldr.w	r0, [r8]
    f43c:	6814      	ldr	r4, [r2, #0]
    f43e:	3001      	adds	r0, #1
    f440:	3401      	adds	r4, #1
    f442:	6014      	str	r4, [r2, #0]
    f444:	f8c8 0000 	str.w	r0, [r8]
    f448:	2005      	movs	r0, #5
    for (; *str && state != CORE_INVALID; str++)
    f44a:	f813 6b01 	ldrb.w	r6, [r3], #1
    f44e:	2801      	cmp	r0, #1
    f450:	bf18      	it	ne
    f452:	2e00      	cmpne	r6, #0
    f454:	f47f af87 	bne.w	f366 <core_state_transition+0x5a>
    f458:	e05f      	b.n	f51a <core_state_transition+0x20e>
                if (ee_isdigit(NEXT_SYMBOL))
    f45a:	6810      	ldr	r0, [r2, #0]
    f45c:	1c44      	adds	r4, r0, #1
    f45e:	6014      	str	r4, [r2, #0]
    f460:	698d      	ldr	r5, [r1, #24]
    retval = ((c >= '0') & (c <= '9')) ? 1 : 0;
    f462:	f1a6 0430 	sub.w	r4, r6, #48	; 0x30
    f466:	3002      	adds	r0, #2
    f468:	b2e4      	uxtb	r4, r4
    f46a:	3501      	adds	r5, #1
    f46c:	6010      	str	r0, [r2, #0]
    f46e:	2007      	movs	r0, #7
    f470:	618d      	str	r5, [r1, #24]
    f472:	2c09      	cmp	r4, #9
    f474:	bf88      	it	hi
    f476:	2001      	movhi	r0, #1
    for (; *str && state != CORE_INVALID; str++)
    f478:	f813 6b01 	ldrb.w	r6, [r3], #1
    f47c:	2801      	cmp	r0, #1
    f47e:	bf18      	it	ne
    f480:	2e00      	cmpne	r6, #0
    f482:	f47f af70 	bne.w	f366 <core_state_transition+0x5a>
    f486:	e048      	b.n	f51a <core_state_transition+0x20e>
                else if (!ee_isdigit(NEXT_SYMBOL))
    f488:	6810      	ldr	r0, [r2, #0]
    retval = ((c >= '0') & (c <= '9')) ? 1 : 0;
    f48a:	f1a6 0530 	sub.w	r5, r6, #48	; 0x30
    f48e:	b2ed      	uxtb	r5, r5
                else if (!ee_isdigit(NEXT_SYMBOL))
    f490:	1c44      	adds	r4, r0, #1
    f492:	2d09      	cmp	r5, #9
    f494:	6014      	str	r4, [r2, #0]
    f496:	d848      	bhi.n	f52a <core_state_transition+0x21e>
    f498:	2005      	movs	r0, #5
    for (; *str && state != CORE_INVALID; str++)
    f49a:	f813 6b01 	ldrb.w	r6, [r3], #1
    f49e:	2801      	cmp	r0, #1
    f4a0:	bf18      	it	ne
    f4a2:	2e00      	cmpne	r6, #0
    f4a4:	f47f af5f 	bne.w	f366 <core_state_transition+0x5a>
    f4a8:	e037      	b.n	f51a <core_state_transition+0x20e>
                    transition_count[CORE_S1]++;
    f4aa:	688c      	ldr	r4, [r1, #8]
    f4ac:	3002      	adds	r0, #2
    f4ae:	3401      	adds	r4, #1
    f4b0:	6010      	str	r0, [r2, #0]
    f4b2:	608c      	str	r4, [r1, #8]
    f4b4:	2004      	movs	r0, #4
    for (; *str && state != CORE_INVALID; str++)
    f4b6:	f813 6b01 	ldrb.w	r6, [r3], #1
    f4ba:	2801      	cmp	r0, #1
    f4bc:	bf18      	it	ne
    f4be:	2e00      	cmpne	r6, #0
    f4c0:	f47f af51 	bne.w	f366 <core_state_transition+0x5a>
    f4c4:	e029      	b.n	f51a <core_state_transition+0x20e>
                else if (!ee_isdigit(NEXT_SYMBOL))
    f4c6:	6810      	ldr	r0, [r2, #0]
    retval = ((c >= '0') & (c <= '9')) ? 1 : 0;
    f4c8:	f1a6 0530 	sub.w	r5, r6, #48	; 0x30
    f4cc:	b2ed      	uxtb	r5, r5
                else if (!ee_isdigit(NEXT_SYMBOL))
    f4ce:	1c44      	adds	r4, r0, #1
    f4d0:	2d09      	cmp	r5, #9
    f4d2:	6014      	str	r4, [r2, #0]
    f4d4:	d82b      	bhi.n	f52e <core_state_transition+0x222>
    f4d6:	2004      	movs	r0, #4
    for (; *str && state != CORE_INVALID; str++)
    f4d8:	f813 6b01 	ldrb.w	r6, [r3], #1
    f4dc:	2801      	cmp	r0, #1
    f4de:	bf18      	it	ne
    f4e0:	2e00      	cmpne	r6, #0
    f4e2:	f47f af40 	bne.w	f366 <core_state_transition+0x5a>
    f4e6:	e018      	b.n	f51a <core_state_transition+0x20e>
    f4e8:	2004      	movs	r0, #4
                transition_count[CORE_START]++;
    f4ea:	680d      	ldr	r5, [r1, #0]
    f4ec:	3401      	adds	r4, #1
    f4ee:	3501      	adds	r5, #1
    f4f0:	6014      	str	r4, [r2, #0]
    f4f2:	600d      	str	r5, [r1, #0]
    for (; *str && state != CORE_INVALID; str++)
    f4f4:	f813 6b01 	ldrb.w	r6, [r3], #1
    f4f8:	2801      	cmp	r0, #1
    f4fa:	bf18      	it	ne
    f4fc:	2e00      	cmpne	r6, #0
    f4fe:	f47f af32 	bne.w	f366 <core_state_transition+0x5a>
    f502:	e00a      	b.n	f51a <core_state_transition+0x20e>
                    transition_count[CORE_INVALID]++;
    f504:	f8de 0000 	ldr.w	r0, [lr]
    f508:	1cac      	adds	r4, r5, #2
    f50a:	3001      	adds	r0, #1
    f50c:	6014      	str	r4, [r2, #0]
    f50e:	f8ce 0000 	str.w	r0, [lr]
    f512:	2001      	movs	r0, #1
    f514:	e7e9      	b.n	f4ea <core_state_transition+0x1de>
    f516:	2000      	movs	r0, #0
    f518:	e000      	b.n	f51c <core_state_transition+0x210>
    *instr = str;
    f51a:	3b01      	subs	r3, #1
    f51c:	6811      	ldr	r1, [r2, #0]
    f51e:	3101      	adds	r1, #1
    f520:	6011      	str	r1, [r2, #0]
    f522:	f8cc 3000 	str.w	r3, [ip]
    return state;
    f526:	e8bd 83f0 	ldmia.w	sp!, {r4, r5, r6, r7, r8, r9, pc}
    f52a:	46ce      	mov	lr, r9
    f52c:	e000      	b.n	f530 <core_state_transition+0x224>
    f52e:	46c6      	mov	lr, r8
    f530:	f8de 1000 	ldr.w	r1, [lr]
    f534:	3002      	adds	r0, #2
    f536:	3101      	adds	r1, #1
    f538:	6010      	str	r0, [r2, #0]
    f53a:	f8ce 1000 	str.w	r1, [lr]
    f53e:	2001      	movs	r0, #1
    f540:	e7ec      	b.n	f51c <core_state_transition+0x210>

0000f542 <crcu16>:
{
    f542:	b5b0      	push	{r4, r5, r7, lr}
    crc = crcu8((ee_u8)(newval), crc);
    f544:	f240 0c30 	movw	ip, #48	; 0x30
    f548:	f2c1 0c00 	movt	ip, #4096	; 0x1000
    f54c:	f8dc e000 	ldr.w	lr, [ip]
    f550:	b2c3      	uxtb	r3, r0
    f552:	f10e 0201 	add.w	r2, lr, #1
    f556:	f8cc 2000 	str.w	r2, [ip]
    f55a:	f24a 0201 	movw	r2, #40961	; 0xa001
    f55e:	f6cf 72ff 	movt	r2, #65535	; 0xffff
        x16 = (ee_u8)((data & 1) ^ ((ee_u8)crc & 1));
    f562:	ea81 0400 	eor.w	r4, r1, r0
        if (carry)
    f566:	ea82 0551 	eor.w	r5, r2, r1, lsr #1
    f56a:	07e4      	lsls	r4, r4, #31
    f56c:	bf08      	it	eq
    f56e:	084d      	lsreq	r5, r1, #1
        x16 = (ee_u8)((data & 1) ^ ((ee_u8)crc & 1));
    f570:	ea85 0153 	eor.w	r1, r5, r3, lsr #1
        crc >>= 1;
    f574:	f3c5 044e 	ubfx	r4, r5, #1, #15
        if (carry)
    f578:	07c9      	lsls	r1, r1, #31
    f57a:	bf18      	it	ne
    f57c:	4054      	eorne	r4, r2
        x16 = (ee_u8)((data & 1) ^ ((ee_u8)crc & 1));
    f57e:	ea84 0193 	eor.w	r1, r4, r3, lsr #2
        crc >>= 1;
    f582:	f3c4 044e 	ubfx	r4, r4, #1, #15
        if (carry)
    f586:	07c9      	lsls	r1, r1, #31
    f588:	bf18      	it	ne
    f58a:	4054      	eorne	r4, r2
        x16 = (ee_u8)((data & 1) ^ ((ee_u8)crc & 1));
    f58c:	ea84 01d3 	eor.w	r1, r4, r3, lsr #3
        crc >>= 1;
    f590:	f3c4 044e 	ubfx	r4, r4, #1, #15
        if (carry)
    f594:	07c9      	lsls	r1, r1, #31
    f596:	bf18      	it	ne
    f598:	4054      	eorne	r4, r2
        x16 = (ee_u8)((data & 1) ^ ((ee_u8)crc & 1));
    f59a:	ea84 1113 	eor.w	r1, r4, r3, lsr #4
        crc >>= 1;
    f59e:	f3c4 044e 	ubfx	r4, r4, #1, #15
        if (carry)
    f5a2:	07c9      	lsls	r1, r1, #31
    f5a4:	bf18      	it	ne
    f5a6:	4054      	eorne	r4, r2
        x16 = (ee_u8)((data & 1) ^ ((ee_u8)crc & 1));
    f5a8:	ea84 1153 	eor.w	r1, r4, r3, lsr #5
        crc >>= 1;
    f5ac:	f3c4 044e 	ubfx	r4, r4, #1, #15
        if (carry)
    f5b0:	07c9      	lsls	r1, r1, #31
    f5b2:	bf18      	it	ne
    f5b4:	4054      	eorne	r4, r2
        x16 = (ee_u8)((data & 1) ^ ((ee_u8)crc & 1));
    f5b6:	ea84 1193 	eor.w	r1, r4, r3, lsr #6
        crc >>= 1;
    f5ba:	f3c4 044e 	ubfx	r4, r4, #1, #15
        if (carry)
    f5be:	07c9      	lsls	r1, r1, #31
    f5c0:	bf18      	it	ne
    f5c2:	4054      	eorne	r4, r2
        x16 = (ee_u8)((data & 1) ^ ((ee_u8)crc & 1));
    f5c4:	f004 0101 	and.w	r1, r4, #1
        crc >>= 1;
    f5c8:	f3c4 044e 	ubfx	r4, r4, #1, #15
        if (carry)
    f5cc:	ebb1 1fd3 	cmp.w	r1, r3, lsr #7
    crc = crcu8((ee_u8)((newval) >> 8), crc);
    f5d0:	f10e 0102 	add.w	r1, lr, #2
        if (carry)
    f5d4:	bf18      	it	ne
    f5d6:	4054      	eorne	r4, r2
    crc = crcu8((ee_u8)((newval) >> 8), crc);
    f5d8:	f8cc 1000 	str.w	r1, [ip]
        x16 = (ee_u8)((data & 1) ^ ((ee_u8)crc & 1));
    f5dc:	ea84 2110 	eor.w	r1, r4, r0, lsr #8
        crc >>= 1;
    f5e0:	f3c4 034e 	ubfx	r3, r4, #1, #15
        if (carry)
    f5e4:	07c9      	lsls	r1, r1, #31
    f5e6:	bf18      	it	ne
    f5e8:	4053      	eorne	r3, r2
        x16 = (ee_u8)((data & 1) ^ ((ee_u8)crc & 1));
    f5ea:	ea83 2150 	eor.w	r1, r3, r0, lsr #9
        crc >>= 1;
    f5ee:	f3c3 034e 	ubfx	r3, r3, #1, #15
        if (carry)
    f5f2:	07c9      	lsls	r1, r1, #31
    f5f4:	bf18      	it	ne
    f5f6:	4053      	eorne	r3, r2
        x16 = (ee_u8)((data & 1) ^ ((ee_u8)crc & 1));
    f5f8:	ea83 2190 	eor.w	r1, r3, r0, lsr #10
        crc >>= 1;
    f5fc:	f3c3 034e 	ubfx	r3, r3, #1, #15
        if (carry)
    f600:	07c9      	lsls	r1, r1, #31
    f602:	bf18      	it	ne
    f604:	4053      	eorne	r3, r2
        x16 = (ee_u8)((data & 1) ^ ((ee_u8)crc & 1));
    f606:	ea83 21d0 	eor.w	r1, r3, r0, lsr #11
        crc >>= 1;
    f60a:	f3c3 034e 	ubfx	r3, r3, #1, #15
        if (carry)
    f60e:	07c9      	lsls	r1, r1, #31
    f610:	bf18      	it	ne
    f612:	4053      	eorne	r3, r2
        x16 = (ee_u8)((data & 1) ^ ((ee_u8)crc & 1));
    f614:	ea83 3110 	eor.w	r1, r3, r0, lsr #12
        crc >>= 1;
    f618:	f3c3 034e 	ubfx	r3, r3, #1, #15
        if (carry)
    f61c:	07c9      	lsls	r1, r1, #31
    f61e:	bf18      	it	ne
    f620:	4053      	eorne	r3, r2
        x16 = (ee_u8)((data & 1) ^ ((ee_u8)crc & 1));
    f622:	ea83 3150 	eor.w	r1, r3, r0, lsr #13
        crc >>= 1;
    f626:	f3c3 034e 	ubfx	r3, r3, #1, #15
        if (carry)
    f62a:	07c9      	lsls	r1, r1, #31
    f62c:	bf18      	it	ne
    f62e:	4053      	eorne	r3, r2
        x16 = (ee_u8)((data & 1) ^ ((ee_u8)crc & 1));
    f630:	ea83 3190 	eor.w	r1, r3, r0, lsr #14
        crc >>= 1;
    f634:	f3c3 034e 	ubfx	r3, r3, #1, #15
        if (carry)
    f638:	07c9      	lsls	r1, r1, #31
    f63a:	bf18      	it	ne
    f63c:	4053      	eorne	r3, r2
        x16 = (ee_u8)((data & 1) ^ ((ee_u8)crc & 1));
    f63e:	f003 0201 	and.w	r2, r3, #1
        crc >>= 1;
    f642:	f3c3 014e 	ubfx	r1, r3, #1, #15
    f646:	f24a 0301 	movw	r3, #40961	; 0xa001
        if (carry)
    f64a:	ebb2 3fd0 	cmp.w	r2, r0, lsr #15
    f64e:	bf18      	it	ne
    f650:	4059      	eorne	r1, r3
    return crc;
    f652:	4608      	mov	r0, r1
    f654:	bdb0      	pop	{r4, r5, r7, pc}

0000f656 <clock>:
  return dummy;
    f656:	f240 0030 	movw	r0, #48	; 0x30
    f65a:	f2c1 0000 	movt	r0, #4096	; 0x1000
    f65e:	6801      	ldr	r1, [r0, #0]
    f660:	3101      	adds	r1, #1
    f662:	6001      	str	r1, [r0, #0]
    f664:	f240 0138 	movw	r1, #56	; 0x38
    f668:	f2c1 0100 	movt	r1, #4096	; 0x1000
    f66c:	6808      	ldr	r0, [r1, #0]
    f66e:	6849      	ldr	r1, [r1, #4]
    f670:	4770      	bx	lr

0000f672 <printf_>:


///////////////////////////////////////////////////////////////////////////////

int printf_(const char* format, ...)
{
    f672:	b083      	sub	sp, #12
    f674:	b580      	push	{r7, lr}
    f676:	b083      	sub	sp, #12
    f678:	4684      	mov	ip, r0
    f67a:	a805      	add	r0, sp, #20
    f67c:	c00e      	stmia	r0!, {r1, r2, r3}
  va_list va;
  va_start(va, format);
  char buffer[1];
  const int ret = _vsnprintf(_out_char, buffer, (size_t)-1, format, va);
